
MegaforceFermentationChamber.elf:     file format elf32-avr

Sections:
Idx Name          Size      VMA       LMA       File off  Algn
  0 .data         000000b8  00800100  00003b94  00003c28  2**0
                  CONTENTS, ALLOC, LOAD, DATA
  1 .text         00003b94  00000000  00000000  00000094  2**1
                  CONTENTS, ALLOC, LOAD, READONLY, CODE
  2 .bss          0000005f  008001b8  008001b8  00003ce0  2**0
                  ALLOC
  3 .comment      0000005c  00000000  00000000  00003ce0  2**0
                  CONTENTS, READONLY
  4 .note.gnu.avr.deviceinfo 00000040  00000000  00000000  00003d3c  2**2
                  CONTENTS, READONLY
  5 .debug_aranges 00000868  00000000  00000000  00003d7c  2**0
                  CONTENTS, READONLY, DEBUGGING
  6 .debug_info   0000a94c  00000000  00000000  000045e4  2**0
                  CONTENTS, READONLY, DEBUGGING
  7 .debug_abbrev 000015a8  00000000  00000000  0000ef30  2**0
                  CONTENTS, READONLY, DEBUGGING
  8 .debug_line   000052fc  00000000  00000000  000104d8  2**0
                  CONTENTS, READONLY, DEBUGGING
  9 .debug_frame  00001c70  00000000  00000000  000157d4  2**2
                  CONTENTS, READONLY, DEBUGGING
 10 .debug_str    00001aa3  00000000  00000000  00017444  2**0
                  CONTENTS, READONLY, DEBUGGING
 11 .debug_loc    0000c81f  00000000  00000000  00018ee7  2**0
                  CONTENTS, READONLY, DEBUGGING
 12 .debug_ranges 000007d8  00000000  00000000  00025706  2**0
                  CONTENTS, READONLY, DEBUGGING

Disassembly of section .text:

00000000 <__vectors>:
       0:	0c 94 a7 0c 	jmp	0x194e	; 0x194e <__ctors_end>
       4:	0c 94 c4 0c 	jmp	0x1988	; 0x1988 <__bad_interrupt>
       8:	0c 94 c4 0c 	jmp	0x1988	; 0x1988 <__bad_interrupt>
       c:	0c 94 c4 0c 	jmp	0x1988	; 0x1988 <__bad_interrupt>
      10:	0c 94 c4 0c 	jmp	0x1988	; 0x1988 <__bad_interrupt>
      14:	0c 94 c4 0c 	jmp	0x1988	; 0x1988 <__bad_interrupt>
      18:	0c 94 c4 0c 	jmp	0x1988	; 0x1988 <__bad_interrupt>
      1c:	0c 94 c4 0c 	jmp	0x1988	; 0x1988 <__bad_interrupt>
      20:	0c 94 c4 0c 	jmp	0x1988	; 0x1988 <__bad_interrupt>
      24:	0c 94 c4 0c 	jmp	0x1988	; 0x1988 <__bad_interrupt>
      28:	0c 94 c4 0c 	jmp	0x1988	; 0x1988 <__bad_interrupt>
      2c:	0c 94 e8 12 	jmp	0x25d0	; 0x25d0 <__vector_11>
      30:	0c 94 c4 0c 	jmp	0x1988	; 0x1988 <__bad_interrupt>
      34:	0c 94 c4 0c 	jmp	0x1988	; 0x1988 <__bad_interrupt>
      38:	0c 94 f6 13 	jmp	0x27ec	; 0x27ec <__vector_14>
      3c:	0c 94 c4 0c 	jmp	0x1988	; 0x1988 <__bad_interrupt>
      40:	0c 94 c4 0c 	jmp	0x1988	; 0x1988 <__bad_interrupt>
      44:	0c 94 c4 0c 	jmp	0x1988	; 0x1988 <__bad_interrupt>
      48:	0c 94 c4 0c 	jmp	0x1988	; 0x1988 <__bad_interrupt>
      4c:	0c 94 c4 0c 	jmp	0x1988	; 0x1988 <__bad_interrupt>
      50:	0c 94 c4 0c 	jmp	0x1988	; 0x1988 <__bad_interrupt>
      54:	0c 94 34 13 	jmp	0x2668	; 0x2668 <__vector_21>
      58:	0c 94 c4 0c 	jmp	0x1988	; 0x1988 <__bad_interrupt>
      5c:	0c 94 c4 0c 	jmp	0x1988	; 0x1988 <__bad_interrupt>
      60:	0c 94 c4 0c 	jmp	0x1988	; 0x1988 <__bad_interrupt>
      64:	0c 94 c4 0c 	jmp	0x1988	; 0x1988 <__bad_interrupt>
      68:	0c 94 c4 0c 	jmp	0x1988	; 0x1988 <__bad_interrupt>
      6c:	0c 94 c4 0c 	jmp	0x1988	; 0x1988 <__bad_interrupt>
      70:	0c 94 c4 0c 	jmp	0x1988	; 0x1988 <__bad_interrupt>
      74:	0c 94 c4 0c 	jmp	0x1988	; 0x1988 <__bad_interrupt>
      78:	0c 94 c4 0c 	jmp	0x1988	; 0x1988 <__bad_interrupt>
      7c:	0c 94 c4 0c 	jmp	0x1988	; 0x1988 <__bad_interrupt>
      80:	0c 94 c4 0c 	jmp	0x1988	; 0x1988 <__bad_interrupt>
      84:	0c 94 c4 0c 	jmp	0x1988	; 0x1988 <__bad_interrupt>
      88:	0c 94 c4 0c 	jmp	0x1988	; 0x1988 <__bad_interrupt>
      8c:	0c 94 c4 0c 	jmp	0x1988	; 0x1988 <__bad_interrupt>
      90:	0c 94 c4 0c 	jmp	0x1988	; 0x1988 <__bad_interrupt>
      94:	0c 94 c4 0c 	jmp	0x1988	; 0x1988 <__bad_interrupt>
      98:	0c 94 c4 0c 	jmp	0x1988	; 0x1988 <__bad_interrupt>
      9c:	0c 94 c4 0c 	jmp	0x1988	; 0x1988 <__bad_interrupt>
      a0:	0c 94 c4 0c 	jmp	0x1988	; 0x1988 <__bad_interrupt>
      a4:	0c 94 c4 0c 	jmp	0x1988	; 0x1988 <__bad_interrupt>
      a8:	0c 94 c4 0c 	jmp	0x1988	; 0x1988 <__bad_interrupt>
      ac:	0c 94 c4 0c 	jmp	0x1988	; 0x1988 <__bad_interrupt>
      b0:	0c 94 c4 0c 	jmp	0x1988	; 0x1988 <__bad_interrupt>
      b4:	27 16       	cp	r2, r23
      b6:	28 16       	cp	r2, r24
      b8:	28 16       	cp	r2, r24
      ba:	28 16       	cp	r2, r24
      bc:	28 16       	cp	r2, r24
      be:	25 16       	cp	r2, r21
      c0:	28 16       	cp	r2, r24
      c2:	28 16       	cp	r2, r24
      c4:	28 16       	cp	r2, r24
      c6:	28 16       	cp	r2, r24
      c8:	28 16       	cp	r2, r24
      ca:	28 16       	cp	r2, r24
      cc:	28 16       	cp	r2, r24
      ce:	28 16       	cp	r2, r24
      d0:	28 16       	cp	r2, r24
      d2:	28 16       	cp	r2, r24
      d4:	28 16       	cp	r2, r24
      d6:	28 16       	cp	r2, r24
      d8:	28 16       	cp	r2, r24
      da:	28 16       	cp	r2, r24
      dc:	23 16       	cp	r2, r19
      de:	28 16       	cp	r2, r24
      e0:	28 16       	cp	r2, r24
      e2:	28 16       	cp	r2, r24
      e4:	28 16       	cp	r2, r24
      e6:	28 16       	cp	r2, r24
      e8:	28 16       	cp	r2, r24
      ea:	28 16       	cp	r2, r24
      ec:	28 16       	cp	r2, r24
      ee:	28 16       	cp	r2, r24
      f0:	28 16       	cp	r2, r24
      f2:	28 16       	cp	r2, r24
      f4:	28 16       	cp	r2, r24
      f6:	28 16       	cp	r2, r24
      f8:	28 16       	cp	r2, r24
      fa:	28 16       	cp	r2, r24
      fc:	28 16       	cp	r2, r24
      fe:	28 16       	cp	r2, r24
     100:	1b 16       	cp	r1, r27
     102:	28 16       	cp	r2, r24
     104:	28 16       	cp	r2, r24
     106:	28 16       	cp	r2, r24
     108:	28 16       	cp	r2, r24
     10a:	28 16       	cp	r2, r24
     10c:	1f 16       	cp	r1, r31
     10e:	28 16       	cp	r2, r24
     110:	28 16       	cp	r2, r24
     112:	28 16       	cp	r2, r24
     114:	28 16       	cp	r2, r24
     116:	28 16       	cp	r2, r24
     118:	28 16       	cp	r2, r24
     11a:	28 16       	cp	r2, r24
     11c:	21 16       	cp	r2, r17
     11e:	28 16       	cp	r2, r24
     120:	28 16       	cp	r2, r24
     122:	28 16       	cp	r2, r24
     124:	28 16       	cp	r2, r24
     126:	28 16       	cp	r2, r24
     128:	28 16       	cp	r2, r24
     12a:	28 16       	cp	r2, r24
     12c:	28 16       	cp	r2, r24
     12e:	28 16       	cp	r2, r24
     130:	28 16       	cp	r2, r24
     132:	28 16       	cp	r2, r24
     134:	28 16       	cp	r2, r24
     136:	28 16       	cp	r2, r24
     138:	28 16       	cp	r2, r24
     13a:	28 16       	cp	r2, r24
     13c:	28 16       	cp	r2, r24
     13e:	28 16       	cp	r2, r24
     140:	19 16       	cp	r1, r25
     142:	28 16       	cp	r2, r24
     144:	28 16       	cp	r2, r24
     146:	28 16       	cp	r2, r24
     148:	28 16       	cp	r2, r24
     14a:	28 16       	cp	r2, r24
     14c:	1d 16       	cp	r1, r29

0000014e <__trampolines_end>:
	...
     186:	80 03       	fmuls	r16, r16
     188:	80 03       	fmuls	r16, r16
     18a:	80 03       	fmuls	r16, r16
     18c:	80 03       	fmuls	r16, r16
     18e:	80 03       	fmuls	r16, r16
     190:	80 03       	fmuls	r16, r16
     192:	80 03       	fmuls	r16, r16
     194:	80 03       	fmuls	r16, r16
     196:	80 03       	fmuls	r16, r16
     198:	80 03       	fmuls	r16, r16
     19a:	80 03       	fmuls	r16, r16
     19c:	80 03       	fmuls	r16, r16
     19e:	80 03       	fmuls	r16, r16
     1a0:	80 03       	fmuls	r16, r16
     1a2:	00 00       	nop
     1a4:	00 00       	nop
     1a6:	80 03       	fmuls	r16, r16
     1a8:	80 03       	fmuls	r16, r16
     1aa:	80 03       	fmuls	r16, r16
	...
     1b8:	38 0e       	add	r3, r24
     1ba:	38 0e       	add	r3, r24
     1bc:	38 0e       	add	r3, r24
     1be:	38 0e       	add	r3, r24
     1c0:	38 0e       	add	r3, r24
     1c2:	10 04       	cpc	r1, r0
     1c4:	10 04       	cpc	r1, r0
	...
     1ee:	80 31       	cpi	r24, 0x10	; 16
     1f0:	80 31       	cpi	r24, 0x10	; 16
     1f2:	c0 18       	sub	r12, r0
     1f4:	c0 18       	sub	r12, r0
     1f6:	c0 18       	sub	r12, r0
     1f8:	c0 18       	sub	r12, r0
     1fa:	fc 7f       	andi	r31, 0xFC	; 252
     1fc:	fc 7f       	andi	r31, 0xFC	; 252
     1fe:	60 0c       	add	r6, r0
     200:	60 06       	cpc	r6, r16
     202:	30 06       	cpc	r3, r16
     204:	fe 3f       	cpi	r31, 0xFE	; 254
     206:	fe 3f       	cpi	r31, 0xFE	; 254
     208:	18 03       	fmul	r17, r16
     20a:	18 03       	fmul	r17, r16
     20c:	18 03       	fmul	r17, r16
     20e:	18 03       	fmul	r17, r16
     210:	8c 01       	movw	r16, r24
     212:	8c 01       	movw	r16, r24
	...
     21c:	00 00       	nop
     21e:	00 03       	mulsu	r16, r16
     220:	00 03       	mulsu	r16, r16
     222:	c0 1f       	adc	r28, r16
     224:	f0 3f       	cpi	r31, 0xF0	; 240
     226:	70 23       	and	r23, r16
     228:	38 03       	fmul	r19, r16
     22a:	38 03       	fmul	r19, r16
     22c:	38 03       	fmul	r19, r16
     22e:	78 03       	fmul	r23, r16
     230:	f0 03       	fmuls	r23, r16
     232:	e0 03       	fmuls	r22, r16
     234:	80 07       	cpc	r24, r16
     236:	00 1f       	adc	r16, r16
     238:	00 1f       	adc	r16, r16
     23a:	00 3b       	cpi	r16, 0xB0	; 176
     23c:	00 3b       	cpi	r16, 0xB0	; 176
     23e:	00 3b       	cpi	r16, 0xB0	; 176
     240:	00 3b       	cpi	r16, 0xB0	; 176
     242:	18 1b       	sub	r17, r24
     244:	f8 1f       	adc	r31, r24
     246:	e0 0f       	add	r30, r16
     248:	00 03       	mulsu	r16, r16
     24a:	00 03       	mulsu	r16, r16
	...
     254:	00 00       	nop
     256:	3c c0       	rjmp	.+120    	; 0x2d0 <__trampolines_end+0x182>
     258:	66 60       	ori	r22, 0x06	; 6
     25a:	c3 30       	cpi	r28, 0x03	; 3
     25c:	c3 18       	sub	r12, r3
     25e:	c3 18       	sub	r12, r3
     260:	c3 0c       	add	r12, r3
     262:	c3 06       	cpc	r12, r19
     264:	66 03       	mulsu	r22, r22
     266:	3c 03       	fmul	r19, r20
     268:	80 01       	movw	r16, r0
     26a:	c0 3c       	cpi	r28, 0xC0	; 192
     26c:	c0 66       	ori	r28, 0x60	; 96
     26e:	60 c3       	rjmp	.+1728   	; 0x930 <__stack+0x31>
     270:	30 c3       	rjmp	.+1632   	; 0x8d2 <__LOCK_REGION_LENGTH__+0x4d2>
     272:	18 c3       	rjmp	.+1584   	; 0x8a4 <__LOCK_REGION_LENGTH__+0x4a4>
     274:	18 c3       	rjmp	.+1584   	; 0x8a6 <__LOCK_REGION_LENGTH__+0x4a6>
     276:	0c c3       	rjmp	.+1560   	; 0x890 <__LOCK_REGION_LENGTH__+0x490>
     278:	06 66       	ori	r16, 0x66	; 102
     27a:	03 3c       	cpi	r16, 0xC3	; 195
	...
     288:	00 00       	nop
     28a:	e0 03       	fmuls	r22, r16
     28c:	f0 07       	cpc	r31, r16
     28e:	38 0e       	add	r3, r24
     290:	38 0e       	add	r3, r24
     292:	38 0e       	add	r3, r24
     294:	38 06       	cpc	r3, r24
     296:	70 07       	cpc	r23, r16
     298:	f0 01       	movw	r30, r0
     29a:	f8 00       	.word	0x00f8	; ????
     29c:	fc e0       	ldi	r31, 0x0C	; 12
     29e:	ce e1       	ldi	r28, 0x1E	; 30
     2a0:	c7 e3       	ldi	r28, 0x37	; 55
     2a2:	87 63       	ori	r24, 0x37	; 55
     2a4:	07 67       	ori	r16, 0x77	; 119
     2a6:	07 7e       	andi	r16, 0xE7	; 231
     2a8:	0f 3e       	cpi	r16, 0xEF	; 239
     2aa:	1e 3c       	cpi	r17, 0xCE	; 206
     2ac:	fc 7f       	andi	r31, 0xFC	; 252
     2ae:	f0 f3       	brcs	.-4      	; 0x2ac <__trampolines_end+0x15e>
	...
     2bc:	c0 01       	movw	r24, r0
     2be:	c0 01       	movw	r24, r0
     2c0:	c0 01       	movw	r24, r0
     2c2:	c0 01       	movw	r24, r0
     2c4:	c0 01       	movw	r24, r0
     2c6:	80 00       	.word	0x0080	; ????
     2c8:	80 00       	.word	0x0080	; ????
	...
     2ee:	00 00       	nop
     2f0:	00 18       	sub	r0, r0
     2f2:	00 1e       	adc	r0, r16
     2f4:	00 0f       	add	r16, r16
     2f6:	80 03       	fmuls	r16, r16
     2f8:	c0 01       	movw	r24, r0
     2fa:	e0 00       	.word	0x00e0	; ????
     2fc:	e0 00       	.word	0x00e0	; ????
     2fe:	e0 00       	.word	0x00e0	; ????
     300:	70 00       	.word	0x0070	; ????
     302:	70 00       	.word	0x0070	; ????
     304:	70 00       	.word	0x0070	; ????
     306:	70 00       	.word	0x0070	; ????
     308:	70 00       	.word	0x0070	; ????
     30a:	70 00       	.word	0x0070	; ????
     30c:	70 00       	.word	0x0070	; ????
     30e:	70 00       	.word	0x0070	; ????
     310:	e0 00       	.word	0x00e0	; ????
     312:	e0 00       	.word	0x00e0	; ????
     314:	e0 00       	.word	0x00e0	; ????
     316:	c0 01       	movw	r24, r0
     318:	80 03       	fmuls	r16, r16
     31a:	00 0f       	add	r16, r16
     31c:	00 1e       	adc	r0, r16
     31e:	00 18       	sub	r0, r0
     320:	00 00       	nop
     322:	00 00       	nop
     324:	0c 00       	.word	0x000c	; ????
     326:	3c 00       	.word	0x003c	; ????
     328:	78 00       	.word	0x0078	; ????
     32a:	e0 00       	.word	0x00e0	; ????
     32c:	c0 01       	movw	r24, r0
     32e:	80 03       	fmuls	r16, r16
     330:	80 03       	fmuls	r16, r16
     332:	80 03       	fmuls	r16, r16
     334:	00 07       	cpc	r16, r16
     336:	00 07       	cpc	r16, r16
     338:	00 07       	cpc	r16, r16
     33a:	00 07       	cpc	r16, r16
     33c:	00 07       	cpc	r16, r16
     33e:	00 07       	cpc	r16, r16
     340:	00 07       	cpc	r16, r16
     342:	00 07       	cpc	r16, r16
     344:	80 03       	fmuls	r16, r16
     346:	80 03       	fmuls	r16, r16
     348:	80 03       	fmuls	r16, r16
     34a:	c0 01       	movw	r24, r0
     34c:	e0 00       	.word	0x00e0	; ????
     34e:	78 00       	.word	0x0078	; ????
     350:	3c 00       	.word	0x003c	; ????
     352:	0c 00       	.word	0x000c	; ????
     354:	00 00       	nop
     356:	00 00       	nop
     358:	00 00       	nop
     35a:	80 03       	fmuls	r16, r16
     35c:	80 03       	fmuls	r16, r16
     35e:	80 03       	fmuls	r16, r16
     360:	98 1b       	sub	r25, r24
     362:	7c 3e       	cpi	r23, 0xEC	; 236
     364:	30 0c       	add	r3, r0
     366:	40 02       	muls	r20, r16
     368:	e0 07       	cpc	r30, r16
     36a:	70 0e       	add	r7, r16
     36c:	38 1c       	adc	r3, r8
     36e:	20 04       	cpc	r2, r0
	...
     398:	80 01       	movw	r16, r0
     39a:	80 01       	movw	r16, r0
     39c:	80 01       	movw	r16, r0
     39e:	80 01       	movw	r16, r0
     3a0:	80 01       	movw	r16, r0
     3a2:	80 01       	movw	r16, r0
     3a4:	fe 7f       	andi	r31, 0xFE	; 254
     3a6:	fe 7f       	andi	r31, 0xFE	; 254
     3a8:	80 01       	movw	r16, r0
     3aa:	80 01       	movw	r16, r0
     3ac:	80 01       	movw	r16, r0
     3ae:	80 01       	movw	r16, r0
     3b0:	80 01       	movw	r16, r0
     3b2:	80 01       	movw	r16, r0
	...
     3e0:	c0 03       	fmuls	r20, r16
     3e2:	c0 03       	fmuls	r20, r16
     3e4:	c0 03       	fmuls	r20, r16
     3e6:	c0 03       	fmuls	r20, r16
     3e8:	00 03       	mulsu	r16, r16
     3ea:	80 03       	fmuls	r16, r16
     3ec:	80 01       	movw	r16, r0
     3ee:	c0 00       	.word	0x00c0	; ????
	...
     408:	00 00       	nop
     40a:	f8 1f       	adc	r31, r24
     40c:	f8 1f       	adc	r31, r24
	...
     446:	00 00       	nop
     448:	c0 03       	fmuls	r20, r16
     44a:	c0 03       	fmuls	r20, r16
     44c:	c0 03       	fmuls	r20, r16
     44e:	c0 03       	fmuls	r20, r16
	...
     45c:	00 60       	ori	r16, 0x00	; 0
     45e:	00 30       	cpi	r16, 0x00	; 0
     460:	00 30       	cpi	r16, 0x00	; 0
     462:	00 18       	sub	r0, r0
     464:	00 18       	sub	r0, r0
     466:	00 0c       	add	r0, r0
     468:	00 0c       	add	r0, r0
     46a:	00 06       	cpc	r0, r16
     46c:	00 06       	cpc	r0, r16
     46e:	00 03       	mulsu	r16, r16
     470:	00 03       	mulsu	r16, r16
     472:	80 01       	movw	r16, r0
     474:	80 01       	movw	r16, r0
     476:	c0 00       	.word	0x00c0	; ????
     478:	c0 00       	.word	0x00c0	; ????
     47a:	60 00       	.word	0x0060	; ????
     47c:	60 00       	.word	0x0060	; ????
     47e:	30 00       	.word	0x0030	; ????
     480:	30 00       	.word	0x0030	; ????
     482:	18 00       	.word	0x0018	; ????
     484:	18 00       	.word	0x0018	; ????
     486:	0c 00       	.word	0x000c	; ????
     488:	0c 00       	.word	0x000c	; ????
     48a:	06 00       	.word	0x0006	; ????
     48c:	00 00       	nop
     48e:	00 00       	nop
     490:	00 00       	nop
     492:	e0 03       	fmuls	r22, r16
     494:	f0 07       	cpc	r31, r16
     496:	38 0e       	add	r3, r24
     498:	1c 1c       	adc	r1, r12
     49a:	1c 1c       	adc	r1, r12
     49c:	0e 38       	cpi	r16, 0x8E	; 142
     49e:	0e 38       	cpi	r16, 0x8E	; 142
     4a0:	0e 38       	cpi	r16, 0x8E	; 142
     4a2:	0e 38       	cpi	r16, 0x8E	; 142
     4a4:	0e 38       	cpi	r16, 0x8E	; 142
     4a6:	0e 38       	cpi	r16, 0x8E	; 142
     4a8:	0e 38       	cpi	r16, 0x8E	; 142
     4aa:	0e 38       	cpi	r16, 0x8E	; 142
     4ac:	0e 38       	cpi	r16, 0x8E	; 142
     4ae:	1c 1c       	adc	r1, r12
     4b0:	1c 1c       	adc	r1, r12
     4b2:	38 0e       	add	r3, r24
     4b4:	f0 07       	cpc	r31, r16
     4b6:	e0 03       	fmuls	r22, r16
	...
     4c4:	00 00       	nop
     4c6:	00 03       	mulsu	r16, r16
     4c8:	e0 03       	fmuls	r22, r16
     4ca:	fc 03       	fmulsu	r23, r20
     4cc:	8c 03       	fmulsu	r16, r20
     4ce:	80 03       	fmuls	r16, r16
     4d0:	80 03       	fmuls	r16, r16
     4d2:	80 03       	fmuls	r16, r16
     4d4:	80 03       	fmuls	r16, r16
     4d6:	80 03       	fmuls	r16, r16
     4d8:	80 03       	fmuls	r16, r16
     4da:	80 03       	fmuls	r16, r16
     4dc:	80 03       	fmuls	r16, r16
     4de:	80 03       	fmuls	r16, r16
     4e0:	80 03       	fmuls	r16, r16
     4e2:	80 03       	fmuls	r16, r16
     4e4:	80 03       	fmuls	r16, r16
     4e6:	80 03       	fmuls	r16, r16
     4e8:	fc 7f       	andi	r31, 0xFC	; 252
     4ea:	fc 7f       	andi	r31, 0xFC	; 252
	...
     4f8:	00 00       	nop
     4fa:	f0 03       	fmuls	r23, r16
     4fc:	fc 07       	cpc	r31, r28
     4fe:	0c 0e       	add	r0, r28
     500:	00 1c       	adc	r0, r0
     502:	00 1c       	adc	r0, r0
     504:	00 1c       	adc	r0, r0
     506:	00 1c       	adc	r0, r0
     508:	00 0e       	add	r0, r16
     50a:	00 0e       	add	r0, r16
     50c:	00 07       	cpc	r16, r16
     50e:	80 03       	fmuls	r16, r16
     510:	c0 01       	movw	r24, r0
     512:	e0 00       	.word	0x00e0	; ????
     514:	70 00       	.word	0x0070	; ????
     516:	30 00       	.word	0x0030	; ????
     518:	38 00       	.word	0x0038	; ????
     51a:	1c 00       	.word	0x001c	; ????
     51c:	fc 1f       	adc	r31, r28
     51e:	fc 1f       	adc	r31, r28
	...
     52c:	00 00       	nop
     52e:	f0 03       	fmuls	r23, r16
     530:	f8 0f       	add	r31, r24
     532:	08 1e       	adc	r0, r24
     534:	00 1c       	adc	r0, r0
     536:	00 1c       	adc	r0, r0
     538:	00 1c       	adc	r0, r0
     53a:	00 0c       	add	r0, r0
     53c:	00 06       	cpc	r0, r16
     53e:	e0 03       	fmuls	r22, r16
     540:	e0 07       	cpc	r30, r16
     542:	00 0f       	add	r16, r16
     544:	00 1e       	adc	r0, r16
     546:	00 1c       	adc	r0, r0
     548:	00 1c       	adc	r0, r0
     54a:	00 1c       	adc	r0, r0
     54c:	00 1e       	adc	r0, r16
     54e:	08 0f       	add	r16, r24
     550:	f8 07       	cpc	r31, r24
     552:	f8 03       	fmulsu	r23, r16
	...
     560:	00 00       	nop
     562:	00 0e       	add	r0, r16
     564:	00 0f       	add	r16, r16
     566:	80 0f       	add	r24, r16
     568:	80 0f       	add	r24, r16
     56a:	c0 0e       	add	r12, r16
     56c:	e0 0e       	add	r14, r16
     56e:	60 0e       	add	r6, r16
     570:	30 0e       	add	r3, r16
     572:	18 0e       	add	r1, r24
     574:	18 0e       	add	r1, r24
     576:	0c 0e       	add	r0, r28
     578:	06 0e       	add	r0, r22
     57a:	fe 7f       	andi	r31, 0xFE	; 254
     57c:	fe 7f       	andi	r31, 0xFE	; 254
     57e:	00 0e       	add	r0, r16
     580:	00 0e       	add	r0, r16
     582:	00 0e       	add	r0, r16
     584:	00 0e       	add	r0, r16
     586:	00 0e       	add	r0, r16
	...
     594:	00 00       	nop
     596:	f0 3f       	cpi	r31, 0xF0	; 240
     598:	f0 3f       	cpi	r31, 0xF0	; 240
     59a:	f0 3f       	cpi	r31, 0xF0	; 240
     59c:	30 00       	.word	0x0030	; ????
     59e:	30 00       	.word	0x0030	; ????
     5a0:	30 00       	.word	0x0030	; ????
     5a2:	30 00       	.word	0x0030	; ????
     5a4:	30 00       	.word	0x0030	; ????
     5a6:	f0 03       	fmuls	r23, r16
     5a8:	f0 0f       	add	r31, r16
     5aa:	00 1e       	adc	r0, r16
     5ac:	00 3c       	cpi	r16, 0xC0	; 192
     5ae:	00 38       	cpi	r16, 0x80	; 128
     5b0:	00 38       	cpi	r16, 0x80	; 128
     5b2:	00 38       	cpi	r16, 0x80	; 128
     5b4:	00 3c       	cpi	r16, 0xC0	; 192
     5b6:	10 1e       	adc	r1, r16
     5b8:	f0 0f       	add	r31, r16
     5ba:	f0 03       	fmuls	r23, r16
	...
     5c8:	00 00       	nop
     5ca:	80 1f       	adc	r24, r16
     5cc:	e0 3f       	cpi	r30, 0xF0	; 240
     5ce:	f0 20       	and	r15, r0
     5d0:	70 00       	.word	0x0070	; ????
     5d2:	38 00       	.word	0x0038	; ????
     5d4:	38 00       	.word	0x0038	; ????
     5d6:	1c 00       	.word	0x001c	; ????
     5d8:	9c 0f       	add	r25, r28
     5da:	dc 1f       	adc	r29, r28
     5dc:	7c 3c       	cpi	r23, 0xCC	; 204
     5de:	3c 78       	andi	r19, 0x8C	; 140
     5e0:	1c 70       	andi	r17, 0x0C	; 12
     5e2:	1c 70       	andi	r17, 0x0C	; 12
     5e4:	1c 70       	andi	r17, 0x0C	; 12
     5e6:	38 70       	andi	r19, 0x08	; 8
     5e8:	38 38       	cpi	r19, 0x88	; 136
     5ea:	70 38       	cpi	r23, 0x80	; 128
     5ec:	f0 1f       	adc	r31, r16
     5ee:	c0 07       	cpc	r28, r16
	...
     5fc:	00 00       	nop
     5fe:	f8 3f       	cpi	r31, 0xF8	; 248
     600:	f8 3f       	cpi	r31, 0xF8	; 248
     602:	f8 3f       	cpi	r31, 0xF8	; 248
     604:	00 18       	sub	r0, r0
     606:	00 18       	sub	r0, r0
     608:	00 0c       	add	r0, r0
     60a:	00 0c       	add	r0, r0
     60c:	00 06       	cpc	r0, r16
     60e:	00 02       	muls	r16, r16
     610:	00 03       	mulsu	r16, r16
     612:	80 01       	movw	r16, r0
     614:	80 01       	movw	r16, r0
     616:	c0 00       	.word	0x00c0	; ????
     618:	c0 00       	.word	0x00c0	; ????
     61a:	60 00       	.word	0x0060	; ????
     61c:	60 00       	.word	0x0060	; ????
     61e:	70 00       	.word	0x0070	; ????
     620:	30 00       	.word	0x0030	; ????
     622:	30 00       	.word	0x0030	; ????
	...
     630:	00 00       	nop
     632:	c0 07       	cpc	r28, r16
     634:	f0 0f       	add	r31, r16
     636:	78 1e       	adc	r7, r24
     638:	38 1c       	adc	r3, r8
     63a:	38 1c       	adc	r3, r8
     63c:	38 1c       	adc	r3, r8
     63e:	78 0c       	add	r7, r8
     640:	f0 0f       	add	r31, r16
     642:	e0 03       	fmuls	r22, r16
     644:	f0 0f       	add	r31, r16
     646:	38 1f       	adc	r19, r24
     648:	18 1e       	adc	r1, r24
     64a:	1c 3c       	cpi	r17, 0xCC	; 204
     64c:	1c 38       	cpi	r17, 0x8C	; 140
     64e:	1c 38       	cpi	r17, 0x8C	; 140
     650:	1c 38       	cpi	r17, 0x8C	; 140
     652:	38 1c       	adc	r3, r8
     654:	f0 0f       	add	r31, r16
     656:	e0 07       	cpc	r30, r16
	...
     664:	00 00       	nop
     666:	c0 07       	cpc	r28, r16
     668:	f0 1f       	adc	r31, r16
     66a:	38 1c       	adc	r3, r8
     66c:	38 38       	cpi	r19, 0x88	; 136
     66e:	1c 38       	cpi	r17, 0x8C	; 140
     670:	1c 70       	andi	r17, 0x0C	; 12
     672:	1c 70       	andi	r17, 0x0C	; 12
     674:	1c 70       	andi	r17, 0x0C	; 12
     676:	3c 78       	andi	r19, 0x8C	; 140
     678:	78 7c       	andi	r23, 0xC8	; 200
     67a:	f0 77       	andi	r31, 0x70	; 112
     67c:	e0 73       	andi	r30, 0x30	; 48
     67e:	00 70       	andi	r16, 0x00	; 0
     680:	00 38       	cpi	r16, 0x80	; 128
     682:	00 38       	cpi	r16, 0x80	; 128
     684:	00 1c       	adc	r0, r0
     686:	08 1e       	adc	r0, r24
     688:	f8 0f       	add	r31, r24
     68a:	f0 03       	fmuls	r23, r16
	...
     6a4:	c0 03       	fmuls	r20, r16
     6a6:	c0 03       	fmuls	r20, r16
     6a8:	c0 03       	fmuls	r20, r16
     6aa:	c0 03       	fmuls	r20, r16
	...
     6b8:	c0 03       	fmuls	r20, r16
     6ba:	c0 03       	fmuls	r20, r16
     6bc:	c0 03       	fmuls	r20, r16
     6be:	c0 03       	fmuls	r20, r16
	...
     6d8:	c0 03       	fmuls	r20, r16
     6da:	c0 03       	fmuls	r20, r16
     6dc:	c0 03       	fmuls	r20, r16
     6de:	c0 03       	fmuls	r20, r16
	...
     6ec:	c0 03       	fmuls	r20, r16
     6ee:	c0 03       	fmuls	r20, r16
     6f0:	c0 03       	fmuls	r20, r16
     6f2:	c0 03       	fmuls	r20, r16
     6f4:	00 03       	mulsu	r16, r16
     6f6:	80 03       	fmuls	r16, r16
     6f8:	80 01       	movw	r16, r0
     6fa:	c0 00       	.word	0x00c0	; ????
	...
     70c:	00 40       	sbci	r16, 0x00	; 0
     70e:	00 70       	andi	r16, 0x00	; 0
     710:	00 3c       	cpi	r16, 0xC0	; 192
     712:	00 0f       	add	r16, r16
     714:	c0 03       	fmuls	r20, r16
     716:	f0 00       	.word	0x00f0	; ????
     718:	3c 00       	.word	0x003c	; ????
     71a:	3c 00       	.word	0x003c	; ????
     71c:	f0 00       	.word	0x00f0	; ????
     71e:	c0 03       	fmuls	r20, r16
     720:	00 0f       	add	r16, r16
     722:	00 3c       	cpi	r16, 0xC0	; 192
     724:	00 70       	andi	r16, 0x00	; 0
     726:	00 40       	sbci	r16, 0x00	; 0
	...
     744:	00 00       	nop
     746:	fe 7f       	andi	r31, 0xFE	; 254
     748:	fe 7f       	andi	r31, 0xFE	; 254
     74a:	00 00       	nop
     74c:	00 00       	nop
     74e:	00 00       	nop
     750:	fe 7f       	andi	r31, 0xFE	; 254
     752:	fe 7f       	andi	r31, 0xFE	; 254
	...
     774:	02 00       	.word	0x0002	; ????
     776:	0e 00       	.word	0x000e	; ????
     778:	3c 00       	.word	0x003c	; ????
     77a:	f0 00       	.word	0x00f0	; ????
     77c:	c0 03       	fmuls	r20, r16
     77e:	00 0f       	add	r16, r16
     780:	00 3c       	cpi	r16, 0xC0	; 192
     782:	00 3c       	cpi	r16, 0xC0	; 192
     784:	00 0f       	add	r16, r16
     786:	c0 03       	fmuls	r20, r16
     788:	f0 00       	.word	0x00f0	; ????
     78a:	3c 00       	.word	0x003c	; ????
     78c:	0e 00       	.word	0x000e	; ????
     78e:	02 00       	.word	0x0002	; ????
	...
     79c:	00 00       	nop
     79e:	f8 07       	cpc	r31, r24
     7a0:	fc 1f       	adc	r31, r28
     7a2:	0c 3c       	cpi	r16, 0xCC	; 204
     7a4:	0c 38       	cpi	r16, 0x8C	; 140
     7a6:	00 38       	cpi	r16, 0x80	; 128
     7a8:	00 38       	cpi	r16, 0x80	; 128
     7aa:	00 1c       	adc	r0, r0
     7ac:	00 1e       	adc	r0, r16
     7ae:	00 0f       	add	r16, r16
     7b0:	80 07       	cpc	r24, r16
     7b2:	80 03       	fmuls	r16, r16
     7b4:	c0 01       	movw	r24, r0
     7b6:	c0 01       	movw	r24, r0
     7b8:	c0 01       	movw	r24, r0
     7ba:	00 00       	nop
     7bc:	00 00       	nop
     7be:	c0 01       	movw	r24, r0
     7c0:	c0 01       	movw	r24, r0
     7c2:	c0 01       	movw	r24, r0
	...
     7d0:	00 00       	nop
     7d2:	c0 0f       	add	r28, r16
     7d4:	e0 1f       	adc	r30, r16
     7d6:	70 38       	cpi	r23, 0x80	; 128
     7d8:	18 30       	cpi	r17, 0x08	; 8
     7da:	1c 3e       	cpi	r17, 0xEC	; 236
     7dc:	0c 31       	cpi	r16, 0x1C	; 28
     7de:	8e 31       	cpi	r24, 0x1E	; 30
     7e0:	c6 30       	cpi	r28, 0x06	; 6
     7e2:	c6 30       	cpi	r28, 0x06	; 6
     7e4:	c6 38       	cpi	r28, 0x86	; 134
     7e6:	c6 38       	cpi	r28, 0x86	; 134
     7e8:	c6 3c       	cpi	r28, 0xC6	; 198
     7ea:	c6 34       	cpi	r28, 0x46	; 70
     7ec:	8e f7       	brtc	.-30     	; 0x7d0 <__LOCK_REGION_LENGTH__+0x3d0>
     7ee:	8c f3       	brlt	.-30     	; 0x7d2 <__LOCK_REGION_LENGTH__+0x3d2>
     7f0:	1c 00       	.word	0x001c	; ????
     7f2:	38 08       	sbc	r3, r8
     7f4:	f0 0f       	add	r31, r16
     7f6:	c0 07       	cpc	r28, r16
	...
     80c:	c0 01       	movw	r24, r0
     80e:	c0 03       	fmuls	r20, r16
     810:	e0 03       	fmuls	r22, r16
     812:	60 07       	cpc	r22, r16
     814:	60 07       	cpc	r22, r16
     816:	70 06       	cpc	r7, r16
     818:	30 0e       	add	r3, r16
     81a:	38 0e       	add	r3, r24
     81c:	38 1c       	adc	r3, r8
     81e:	18 1c       	adc	r1, r8
     820:	fc 3f       	cpi	r31, 0xFC	; 252
     822:	fc 3f       	cpi	r31, 0xFC	; 252
     824:	0e 38       	cpi	r16, 0x8E	; 142
     826:	0e 70       	andi	r16, 0x0E	; 14
     828:	0e 70       	andi	r16, 0x0E	; 14
     82a:	07 e0       	ldi	r16, 0x07	; 7
	...
     840:	fc 07       	cpc	r31, r28
     842:	fc 0f       	add	r31, r28
     844:	1c 1e       	adc	r1, r28
     846:	1c 1c       	adc	r1, r12
     848:	1c 1c       	adc	r1, r12
     84a:	1c 0e       	add	r1, r28
     84c:	fc 07       	cpc	r31, r28
     84e:	fc 07       	cpc	r31, r28
     850:	1c 1e       	adc	r1, r28
     852:	1c 3c       	cpi	r17, 0xCC	; 204
     854:	1c 38       	cpi	r17, 0x8C	; 140
     856:	1c 38       	cpi	r17, 0x8C	; 140
     858:	1c 38       	cpi	r17, 0x8C	; 140
     85a:	1c 3c       	cpi	r17, 0xCC	; 204
     85c:	fc 1f       	adc	r31, r28
     85e:	fc 07       	cpc	r31, r28
	...
     874:	c0 1f       	adc	r28, r16
     876:	f0 3f       	cpi	r31, 0xF0	; 240
     878:	78 30       	cpi	r23, 0x08	; 8
     87a:	3c 00       	.word	0x003c	; ????
     87c:	1c 00       	.word	0x001c	; ????
     87e:	0e 00       	.word	0x000e	; ????
     880:	0e 00       	.word	0x000e	; ????
     882:	0e 00       	.word	0x000e	; ????
     884:	0e 00       	.word	0x000e	; ????
     886:	0e 00       	.word	0x000e	; ????
     888:	0e 00       	.word	0x000e	; ????
     88a:	1c 00       	.word	0x001c	; ????
     88c:	3c 00       	.word	0x003c	; ????
     88e:	78 20       	and	r7, r8
     890:	f0 3f       	cpi	r31, 0xF0	; 240
     892:	c0 1f       	adc	r28, r16
	...
     8a8:	fc 07       	cpc	r31, r28
     8aa:	fc 0f       	add	r31, r28
     8ac:	1c 3c       	cpi	r17, 0xCC	; 204
     8ae:	1c 38       	cpi	r17, 0x8C	; 140
     8b0:	1c 78       	andi	r17, 0x8C	; 140
     8b2:	1c 70       	andi	r17, 0x0C	; 12
     8b4:	1c 70       	andi	r17, 0x0C	; 12
     8b6:	1c 70       	andi	r17, 0x0C	; 12
     8b8:	1c 70       	andi	r17, 0x0C	; 12
     8ba:	1c 70       	andi	r17, 0x0C	; 12
     8bc:	1c 70       	andi	r17, 0x0C	; 12
     8be:	1c 38       	cpi	r17, 0x8C	; 140
     8c0:	1c 38       	cpi	r17, 0x8C	; 140
     8c2:	1c 1e       	adc	r1, r28
     8c4:	fc 0f       	add	r31, r28
     8c6:	fc 03       	fmulsu	r23, r20
	...
     8dc:	f8 3f       	cpi	r31, 0xF8	; 248
     8de:	f8 3f       	cpi	r31, 0xF8	; 248
     8e0:	38 00       	.word	0x0038	; ????
     8e2:	38 00       	.word	0x0038	; ????
     8e4:	38 00       	.word	0x0038	; ????
     8e6:	38 00       	.word	0x0038	; ????
     8e8:	38 00       	.word	0x0038	; ????
     8ea:	f8 1f       	adc	r31, r24
     8ec:	f8 1f       	adc	r31, r24
     8ee:	38 00       	.word	0x0038	; ????
     8f0:	38 00       	.word	0x0038	; ????
     8f2:	38 00       	.word	0x0038	; ????
     8f4:	38 00       	.word	0x0038	; ????
     8f6:	38 00       	.word	0x0038	; ????
     8f8:	f8 7f       	andi	r31, 0xF8	; 248
     8fa:	f8 7f       	andi	r31, 0xF8	; 248
	...
     910:	f8 7f       	andi	r31, 0xF8	; 248
     912:	f8 7f       	andi	r31, 0xF8	; 248
     914:	38 00       	.word	0x0038	; ????
     916:	38 00       	.word	0x0038	; ????
     918:	38 00       	.word	0x0038	; ????
     91a:	38 00       	.word	0x0038	; ????
     91c:	38 00       	.word	0x0038	; ????
     91e:	f8 3f       	cpi	r31, 0xF8	; 248
     920:	f8 3f       	cpi	r31, 0xF8	; 248
     922:	38 00       	.word	0x0038	; ????
     924:	38 00       	.word	0x0038	; ????
     926:	38 00       	.word	0x0038	; ????
     928:	38 00       	.word	0x0038	; ????
     92a:	38 00       	.word	0x0038	; ????
     92c:	38 00       	.word	0x0038	; ????
     92e:	38 00       	.word	0x0038	; ????
	...
     944:	c0 1f       	adc	r28, r16
     946:	f0 3f       	cpi	r31, 0xF0	; 240
     948:	78 30       	cpi	r23, 0x08	; 8
     94a:	3c 00       	.word	0x003c	; ????
     94c:	1c 00       	.word	0x001c	; ????
     94e:	0e 00       	.word	0x000e	; ????
     950:	0e 00       	.word	0x000e	; ????
     952:	0e 00       	.word	0x000e	; ????
     954:	0e 3f       	cpi	r16, 0xFE	; 254
     956:	0e 3f       	cpi	r16, 0xFE	; 254
     958:	0e 38       	cpi	r16, 0x8E	; 142
     95a:	1c 38       	cpi	r17, 0x8C	; 140
     95c:	3c 38       	cpi	r19, 0x8C	; 140
     95e:	78 38       	cpi	r23, 0x88	; 136
     960:	f0 3f       	cpi	r31, 0xF0	; 240
     962:	c0 1f       	adc	r28, r16
	...
     978:	1c 38       	cpi	r17, 0x8C	; 140
     97a:	1c 38       	cpi	r17, 0x8C	; 140
     97c:	1c 38       	cpi	r17, 0x8C	; 140
     97e:	1c 38       	cpi	r17, 0x8C	; 140
     980:	1c 38       	cpi	r17, 0x8C	; 140
     982:	1c 38       	cpi	r17, 0x8C	; 140
     984:	1c 38       	cpi	r17, 0x8C	; 140
     986:	fc 3f       	cpi	r31, 0xFC	; 252
     988:	fc 3f       	cpi	r31, 0xFC	; 252
     98a:	1c 38       	cpi	r17, 0x8C	; 140
     98c:	1c 38       	cpi	r17, 0x8C	; 140
     98e:	1c 38       	cpi	r17, 0x8C	; 140
     990:	1c 38       	cpi	r17, 0x8C	; 140
     992:	1c 38       	cpi	r17, 0x8C	; 140
     994:	1c 38       	cpi	r17, 0x8C	; 140
     996:	1c 38       	cpi	r17, 0x8C	; 140
	...
     9ac:	fc 1f       	adc	r31, r28
     9ae:	fc 1f       	adc	r31, r28
     9b0:	c0 01       	movw	r24, r0
     9b2:	c0 01       	movw	r24, r0
     9b4:	c0 01       	movw	r24, r0
     9b6:	c0 01       	movw	r24, r0
     9b8:	c0 01       	movw	r24, r0
     9ba:	c0 01       	movw	r24, r0
     9bc:	c0 01       	movw	r24, r0
     9be:	c0 01       	movw	r24, r0
     9c0:	c0 01       	movw	r24, r0
     9c2:	c0 01       	movw	r24, r0
     9c4:	c0 01       	movw	r24, r0
     9c6:	c0 01       	movw	r24, r0
     9c8:	fc 1f       	adc	r31, r28
     9ca:	fc 1f       	adc	r31, r28
	...
     9e0:	f8 0f       	add	r31, r24
     9e2:	f8 0f       	add	r31, r24
     9e4:	00 0e       	add	r0, r16
     9e6:	00 0e       	add	r0, r16
     9e8:	00 0e       	add	r0, r16
     9ea:	00 0e       	add	r0, r16
     9ec:	00 0e       	add	r0, r16
     9ee:	00 0e       	add	r0, r16
     9f0:	00 0e       	add	r0, r16
     9f2:	00 0e       	add	r0, r16
     9f4:	00 0e       	add	r0, r16
     9f6:	00 0e       	add	r0, r16
     9f8:	00 0e       	add	r0, r16
     9fa:	04 07       	cpc	r16, r20
     9fc:	fc 03       	fmulsu	r23, r20
     9fe:	fc 01       	movw	r30, r24
	...
     a14:	1c 78       	andi	r17, 0x8C	; 140
     a16:	1c 3c       	cpi	r17, 0xCC	; 204
     a18:	1c 1e       	adc	r1, r28
     a1a:	1c 0f       	add	r17, r28
     a1c:	1c 07       	cpc	r17, r28
     a1e:	9c 03       	fmulsu	r17, r20
     a20:	dc 01       	movw	r26, r24
     a22:	fc 00       	.word	0x00fc	; ????
     a24:	dc 01       	movw	r26, r24
     a26:	dc 03       	fmulsu	r21, r20
     a28:	9c 07       	cpc	r25, r28
     a2a:	1c 0f       	add	r17, r28
     a2c:	1c 1e       	adc	r1, r28
     a2e:	1c 3c       	cpi	r17, 0xCC	; 204
     a30:	1c 78       	andi	r17, 0x8C	; 140
     a32:	1c f8       	.word	0xf81c	; ????
	...
     a48:	38 00       	.word	0x0038	; ????
     a4a:	38 00       	.word	0x0038	; ????
     a4c:	38 00       	.word	0x0038	; ????
     a4e:	38 00       	.word	0x0038	; ????
     a50:	38 00       	.word	0x0038	; ????
     a52:	38 00       	.word	0x0038	; ????
     a54:	38 00       	.word	0x0038	; ????
     a56:	38 00       	.word	0x0038	; ????
     a58:	38 00       	.word	0x0038	; ????
     a5a:	38 00       	.word	0x0038	; ????
     a5c:	38 00       	.word	0x0038	; ????
     a5e:	38 00       	.word	0x0038	; ????
     a60:	38 00       	.word	0x0038	; ????
     a62:	38 00       	.word	0x0038	; ????
     a64:	f8 3f       	cpi	r31, 0xF8	; 248
     a66:	f8 3f       	cpi	r31, 0xF8	; 248
	...
     a7c:	0e 38       	cpi	r16, 0x8E	; 142
     a7e:	1e 3c       	cpi	r17, 0xCE	; 206
     a80:	1e 3c       	cpi	r17, 0xCE	; 206
     a82:	1e 3c       	cpi	r17, 0xCE	; 206
     a84:	36 36       	cpi	r19, 0x66	; 102
     a86:	36 36       	cpi	r19, 0x66	; 102
     a88:	36 36       	cpi	r19, 0x66	; 102
     a8a:	66 32       	cpi	r22, 0x26	; 38
     a8c:	66 33       	cpi	r22, 0x36	; 54
     a8e:	66 33       	cpi	r22, 0x36	; 54
     a90:	c6 31       	cpi	r28, 0x16	; 22
     a92:	c6 31       	cpi	r28, 0x16	; 22
     a94:	c6 31       	cpi	r28, 0x16	; 22
     a96:	06 30       	cpi	r16, 0x06	; 6
     a98:	06 30       	cpi	r16, 0x06	; 6
     a9a:	06 30       	cpi	r16, 0x06	; 6
	...
     ab0:	1c 30       	cpi	r17, 0x0C	; 12
     ab2:	1c 30       	cpi	r17, 0x0C	; 12
     ab4:	3c 30       	cpi	r19, 0x0C	; 12
     ab6:	7c 30       	cpi	r23, 0x0C	; 12
     ab8:	7c 30       	cpi	r23, 0x0C	; 12
     aba:	fc 30       	cpi	r31, 0x0C	; 12
     abc:	ec 31       	cpi	r30, 0x1C	; 28
     abe:	cc 31       	cpi	r28, 0x1C	; 28
     ac0:	cc 33       	cpi	r28, 0x3C	; 60
     ac2:	8c 37       	cpi	r24, 0x7C	; 124
     ac4:	0c 3f       	cpi	r16, 0xFC	; 252
     ac6:	0c 3e       	cpi	r16, 0xEC	; 236
     ac8:	0c 3e       	cpi	r16, 0xEC	; 236
     aca:	0c 3c       	cpi	r16, 0xCC	; 204
     acc:	0c 38       	cpi	r16, 0x8C	; 140
     ace:	0c 38       	cpi	r16, 0x8C	; 140
	...
     ae4:	e0 07       	cpc	r30, r16
     ae6:	f0 0f       	add	r31, r16
     ae8:	38 1c       	adc	r3, r8
     aea:	1c 38       	cpi	r17, 0x8C	; 140
     aec:	1c 38       	cpi	r17, 0x8C	; 140
     aee:	0e 70       	andi	r16, 0x0E	; 14
     af0:	0e 70       	andi	r16, 0x0E	; 14
     af2:	0e 70       	andi	r16, 0x0E	; 14
     af4:	0e 70       	andi	r16, 0x0E	; 14
     af6:	0e 70       	andi	r16, 0x0E	; 14
     af8:	0e 70       	andi	r16, 0x0E	; 14
     afa:	1c 38       	cpi	r17, 0x8C	; 140
     afc:	1c 38       	cpi	r17, 0x8C	; 140
     afe:	38 1c       	adc	r3, r8
     b00:	f0 0f       	add	r31, r16
     b02:	e0 07       	cpc	r30, r16
	...
     b18:	f8 1f       	adc	r31, r24
     b1a:	f8 3f       	cpi	r31, 0xF8	; 248
     b1c:	38 78       	andi	r19, 0x88	; 136
     b1e:	38 70       	andi	r19, 0x08	; 8
     b20:	38 70       	andi	r19, 0x08	; 8
     b22:	38 70       	andi	r19, 0x08	; 8
     b24:	38 78       	andi	r19, 0x88	; 136
     b26:	38 3c       	cpi	r19, 0xC8	; 200
     b28:	f8 1f       	adc	r31, r24
     b2a:	f8 07       	cpc	r31, r24
     b2c:	38 00       	.word	0x0038	; ????
     b2e:	38 00       	.word	0x0038	; ????
     b30:	38 00       	.word	0x0038	; ????
     b32:	38 00       	.word	0x0038	; ????
     b34:	38 00       	.word	0x0038	; ????
     b36:	38 00       	.word	0x0038	; ????
	...
     b4c:	e0 07       	cpc	r30, r16
     b4e:	f0 0f       	add	r31, r16
     b50:	38 1c       	adc	r3, r8
     b52:	1c 38       	cpi	r17, 0x8C	; 140
     b54:	1c 38       	cpi	r17, 0x8C	; 140
     b56:	0e 70       	andi	r16, 0x0E	; 14
     b58:	0e 70       	andi	r16, 0x0E	; 14
     b5a:	0e 70       	andi	r16, 0x0E	; 14
     b5c:	0e 70       	andi	r16, 0x0E	; 14
     b5e:	0e 70       	andi	r16, 0x0E	; 14
     b60:	0e 70       	andi	r16, 0x0E	; 14
     b62:	1c 38       	cpi	r17, 0x8C	; 140
     b64:	1c 38       	cpi	r17, 0x8C	; 140
     b66:	38 1c       	adc	r3, r8
     b68:	f0 0f       	add	r31, r16
     b6a:	e0 07       	cpc	r30, r16
     b6c:	00 1e       	adc	r0, r16
     b6e:	00 78       	andi	r16, 0x80	; 128
     b70:	00 f0       	brcs	.+0      	; 0xb72 <__stack+0x273>
     b72:	00 40       	sbci	r16, 0x00	; 0
	...
     b80:	fc 07       	cpc	r31, r28
     b82:	fc 0f       	add	r31, r28
     b84:	1c 1e       	adc	r1, r28
     b86:	1c 1c       	adc	r1, r12
     b88:	1c 1c       	adc	r1, r12
     b8a:	1c 1c       	adc	r1, r12
     b8c:	1c 0e       	add	r1, r28
     b8e:	fc 07       	cpc	r31, r28
     b90:	fc 03       	fmulsu	r23, r20
     b92:	9c 07       	cpc	r25, r28
     b94:	1c 07       	cpc	r17, r28
     b96:	1c 0f       	add	r17, r28
     b98:	1c 1e       	adc	r1, r28
     b9a:	1c 3c       	cpi	r17, 0xCC	; 204
     b9c:	1c 38       	cpi	r17, 0x8C	; 140
     b9e:	1c 78       	andi	r17, 0x8C	; 140
	...
     bb4:	e0 0f       	add	r30, r16
     bb6:	f8 1f       	adc	r31, r24
     bb8:	3c 18       	sub	r3, r12
     bba:	1c 00       	.word	0x001c	; ????
     bbc:	1c 00       	.word	0x001c	; ????
     bbe:	3c 00       	.word	0x003c	; ????
     bc0:	f8 00       	.word	0x00f8	; ????
     bc2:	f0 07       	cpc	r31, r16
     bc4:	c0 1f       	adc	r28, r16
     bc6:	00 3e       	cpi	r16, 0xE0	; 224
     bc8:	00 38       	cpi	r16, 0x80	; 128
     bca:	00 38       	cpi	r16, 0x80	; 128
     bcc:	00 38       	cpi	r16, 0x80	; 128
     bce:	0c 1c       	adc	r0, r12
     bd0:	fc 1f       	adc	r31, r28
     bd2:	f0 07       	cpc	r31, r16
	...
     be8:	ff 7f       	andi	r31, 0xFF	; 255
     bea:	ff 7f       	andi	r31, 0xFF	; 255
     bec:	c0 01       	movw	r24, r0
     bee:	c0 01       	movw	r24, r0
     bf0:	c0 01       	movw	r24, r0
     bf2:	c0 01       	movw	r24, r0
     bf4:	c0 01       	movw	r24, r0
     bf6:	c0 01       	movw	r24, r0
     bf8:	c0 01       	movw	r24, r0
     bfa:	c0 01       	movw	r24, r0
     bfc:	c0 01       	movw	r24, r0
     bfe:	c0 01       	movw	r24, r0
     c00:	c0 01       	movw	r24, r0
     c02:	c0 01       	movw	r24, r0
     c04:	c0 01       	movw	r24, r0
     c06:	c0 01       	movw	r24, r0
	...
     c1c:	1c 70       	andi	r17, 0x0C	; 12
     c1e:	1c 70       	andi	r17, 0x0C	; 12
     c20:	1c 70       	andi	r17, 0x0C	; 12
     c22:	1c 70       	andi	r17, 0x0C	; 12
     c24:	1c 70       	andi	r17, 0x0C	; 12
     c26:	1c 70       	andi	r17, 0x0C	; 12
     c28:	1c 70       	andi	r17, 0x0C	; 12
     c2a:	1c 70       	andi	r17, 0x0C	; 12
     c2c:	1c 70       	andi	r17, 0x0C	; 12
     c2e:	1c 70       	andi	r17, 0x0C	; 12
     c30:	1c 70       	andi	r17, 0x0C	; 12
     c32:	1c 70       	andi	r17, 0x0C	; 12
     c34:	3c 78       	andi	r19, 0x8C	; 140
     c36:	38 38       	cpi	r19, 0x88	; 136
     c38:	f0 1f       	adc	r31, r16
     c3a:	e0 0f       	add	r30, r16
	...
     c50:	07 e0       	ldi	r16, 0x07	; 7
     c52:	0e 70       	andi	r16, 0x0E	; 14
     c54:	0e 70       	andi	r16, 0x0E	; 14
     c56:	1c 70       	andi	r17, 0x0C	; 12
     c58:	1c 38       	cpi	r17, 0x8C	; 140
     c5a:	3c 38       	cpi	r19, 0x8C	; 140
     c5c:	38 38       	cpi	r19, 0x88	; 136
     c5e:	38 1c       	adc	r3, r8
     c60:	70 1c       	adc	r7, r0
     c62:	70 0c       	add	r7, r0
     c64:	e0 0e       	add	r14, r16
     c66:	e0 0e       	add	r14, r16
     c68:	e0 07       	cpc	r30, r16
     c6a:	c0 07       	cpc	r28, r16
     c6c:	c0 07       	cpc	r28, r16
     c6e:	80 03       	fmuls	r16, r16
	...
     c84:	03 c0       	rjmp	.+6      	; 0xc8c <__stack+0x38d>
     c86:	03 c0       	rjmp	.+6      	; 0xc8e <__stack+0x38f>
     c88:	07 c0       	rjmp	.+14     	; 0xc98 <__stack+0x399>
     c8a:	86 61       	ori	r24, 0x16	; 22
     c8c:	c6 63       	ori	r28, 0x36	; 54
     c8e:	c6 63       	ori	r28, 0x36	; 54
     c90:	c6 63       	ori	r28, 0x36	; 54
     c92:	c6 63       	ori	r28, 0x36	; 54
     c94:	4e 76       	andi	r20, 0x6E	; 110
     c96:	6c 36       	cpi	r22, 0x6C	; 108
     c98:	6c 36       	cpi	r22, 0x6C	; 108
     c9a:	6c 36       	cpi	r22, 0x6C	; 108
     c9c:	2c 3e       	cpi	r18, 0xEC	; 236
     c9e:	3c 3c       	cpi	r19, 0xCC	; 204
     ca0:	3c 1c       	adc	r3, r12
     ca2:	3c 1c       	adc	r3, r12
	...
     cb8:	1e e0       	ldi	r17, 0x0E	; 14
     cba:	3c 70       	andi	r19, 0x0C	; 12
     cbc:	78 38       	cpi	r23, 0x88	; 136
     cbe:	78 1c       	adc	r7, r8
     cc0:	f0 0e       	add	r15, r16
     cc2:	e0 07       	cpc	r30, r16
     cc4:	c0 03       	fmuls	r20, r16
     cc6:	c0 03       	fmuls	r20, r16
     cc8:	c0 07       	cpc	r28, r16
     cca:	e0 07       	cpc	r30, r16
     ccc:	60 0f       	add	r22, r16
     cce:	30 1e       	adc	r3, r16
     cd0:	18 3c       	cpi	r17, 0xC8	; 200
     cd2:	1c 38       	cpi	r17, 0x8C	; 140
     cd4:	0e 78       	andi	r16, 0x8E	; 142
     cd6:	07 f0       	brie	.+0      	; 0xcd8 <__stack+0x3d9>
	...
     cec:	07 e0       	ldi	r16, 0x07	; 7
     cee:	0e 70       	andi	r16, 0x0E	; 14
     cf0:	1c 30       	cpi	r17, 0x0C	; 12
     cf2:	1c 18       	sub	r1, r12
     cf4:	38 1c       	adc	r3, r8
     cf6:	78 0e       	add	r7, r24
     cf8:	70 07       	cpc	r23, r16
     cfa:	e0 03       	fmuls	r22, r16
     cfc:	e0 03       	fmuls	r22, r16
     cfe:	c0 01       	movw	r24, r0
     d00:	c0 01       	movw	r24, r0
     d02:	c0 01       	movw	r24, r0
     d04:	c0 01       	movw	r24, r0
     d06:	c0 01       	movw	r24, r0
     d08:	c0 01       	movw	r24, r0
     d0a:	c0 01       	movw	r24, r0
	...
     d20:	fc 3f       	cpi	r31, 0xFC	; 252
     d22:	fc 3f       	cpi	r31, 0xFC	; 252
     d24:	00 38       	cpi	r16, 0x80	; 128
     d26:	00 1c       	adc	r0, r0
     d28:	00 0e       	add	r0, r16
     d2a:	00 07       	cpc	r16, r16
     d2c:	80 03       	fmuls	r16, r16
     d2e:	80 01       	movw	r16, r0
     d30:	c0 00       	.word	0x00c0	; ????
     d32:	e0 00       	.word	0x00e0	; ????
     d34:	70 00       	.word	0x0070	; ????
     d36:	38 00       	.word	0x0038	; ????
     d38:	1c 00       	.word	0x001c	; ????
     d3a:	0e 00       	.word	0x000e	; ????
     d3c:	fe 3f       	cpi	r31, 0xFE	; 254
     d3e:	fe 3f       	cpi	r31, 0xFE	; 254
	...
     d4c:	c0 3f       	cpi	r28, 0xF0	; 240
     d4e:	c0 3f       	cpi	r28, 0xF0	; 240
     d50:	c0 01       	movw	r24, r0
     d52:	c0 01       	movw	r24, r0
     d54:	c0 01       	movw	r24, r0
     d56:	c0 01       	movw	r24, r0
     d58:	c0 01       	movw	r24, r0
     d5a:	c0 01       	movw	r24, r0
     d5c:	c0 01       	movw	r24, r0
     d5e:	c0 01       	movw	r24, r0
     d60:	c0 01       	movw	r24, r0
     d62:	c0 01       	movw	r24, r0
     d64:	c0 01       	movw	r24, r0
     d66:	c0 01       	movw	r24, r0
     d68:	c0 01       	movw	r24, r0
     d6a:	c0 01       	movw	r24, r0
     d6c:	c0 01       	movw	r24, r0
     d6e:	c0 01       	movw	r24, r0
     d70:	c0 01       	movw	r24, r0
     d72:	c0 01       	movw	r24, r0
     d74:	c0 01       	movw	r24, r0
     d76:	c0 01       	movw	r24, r0
     d78:	c0 3f       	cpi	r28, 0xF0	; 240
     d7a:	c0 3f       	cpi	r28, 0xF0	; 240
     d7c:	00 00       	nop
     d7e:	00 00       	nop
     d80:	06 00       	.word	0x0006	; ????
     d82:	0c 00       	.word	0x000c	; ????
     d84:	0c 00       	.word	0x000c	; ????
     d86:	18 00       	.word	0x0018	; ????
     d88:	18 00       	.word	0x0018	; ????
     d8a:	30 00       	.word	0x0030	; ????
     d8c:	30 00       	.word	0x0030	; ????
     d8e:	60 00       	.word	0x0060	; ????
     d90:	60 00       	.word	0x0060	; ????
     d92:	c0 00       	.word	0x00c0	; ????
     d94:	c0 00       	.word	0x00c0	; ????
     d96:	80 01       	movw	r16, r0
     d98:	80 01       	movw	r16, r0
     d9a:	00 03       	mulsu	r16, r16
     d9c:	00 03       	mulsu	r16, r16
     d9e:	00 06       	cpc	r0, r16
     da0:	00 06       	cpc	r0, r16
     da2:	00 0c       	add	r0, r0
     da4:	00 0c       	add	r0, r0
     da6:	00 18       	sub	r0, r0
     da8:	00 18       	sub	r0, r0
     daa:	00 30       	cpi	r16, 0x00	; 0
     dac:	00 30       	cpi	r16, 0x00	; 0
     dae:	00 60       	ori	r16, 0x00	; 0
     db0:	00 00       	nop
     db2:	00 00       	nop
     db4:	fc 03       	fmulsu	r23, r20
     db6:	fc 03       	fmulsu	r23, r20
     db8:	80 03       	fmuls	r16, r16
     dba:	80 03       	fmuls	r16, r16
     dbc:	80 03       	fmuls	r16, r16
     dbe:	80 03       	fmuls	r16, r16
     dc0:	80 03       	fmuls	r16, r16
     dc2:	80 03       	fmuls	r16, r16
     dc4:	80 03       	fmuls	r16, r16
     dc6:	80 03       	fmuls	r16, r16
     dc8:	80 03       	fmuls	r16, r16
     dca:	80 03       	fmuls	r16, r16
     dcc:	80 03       	fmuls	r16, r16
     dce:	80 03       	fmuls	r16, r16
     dd0:	80 03       	fmuls	r16, r16
     dd2:	80 03       	fmuls	r16, r16
     dd4:	80 03       	fmuls	r16, r16
     dd6:	80 03       	fmuls	r16, r16
     dd8:	80 03       	fmuls	r16, r16
     dda:	80 03       	fmuls	r16, r16
     ddc:	80 03       	fmuls	r16, r16
     dde:	80 03       	fmuls	r16, r16
     de0:	fc 03       	fmulsu	r23, r20
     de2:	fc 03       	fmulsu	r23, r20
     de4:	00 00       	nop
     de6:	00 00       	nop
     de8:	00 00       	nop
     dea:	00 01       	movw	r0, r0
     dec:	00 01       	movw	r0, r0
     dee:	80 03       	fmuls	r16, r16
     df0:	80 03       	fmuls	r16, r16
     df2:	c0 03       	fmuls	r20, r16
     df4:	c0 06       	cpc	r12, r16
     df6:	e0 06       	cpc	r14, r16
     df8:	60 0c       	add	r6, r0
     dfa:	30 0c       	add	r3, r0
     dfc:	30 18       	sub	r3, r0
     dfe:	18 18       	sub	r1, r8
     e00:	18 18       	sub	r1, r8
     e02:	0c 30       	cpi	r16, 0x0C	; 12
     e04:	0c 30       	cpi	r16, 0x0C	; 12
     e06:	06 60       	ori	r16, 0x06	; 6
	...
     e44:	ff ff       	.word	0xffff	; ????
     e46:	ff ff       	.word	0xffff	; ????
     e48:	00 00       	nop
     e4a:	00 00       	nop
     e4c:	00 00       	nop
     e4e:	c0 01       	movw	r24, r0
     e50:	80 03       	fmuls	r16, r16
     e52:	00 07       	cpc	r16, r16
	...
     e90:	e0 07       	cpc	r30, r16
     e92:	f8 0f       	add	r31, r24
     e94:	18 1e       	adc	r1, r24
     e96:	00 1c       	adc	r0, r0
     e98:	00 1c       	adc	r0, r0
     e9a:	e0 1f       	adc	r30, r16
     e9c:	f0 1f       	adc	r31, r16
     e9e:	38 1c       	adc	r3, r8
     ea0:	1c 1c       	adc	r1, r12
     ea2:	1c 1c       	adc	r1, r12
     ea4:	1c 1c       	adc	r1, r12
     ea6:	3c 1e       	adc	r3, r28
     ea8:	f8 7b       	andi	r31, 0xB8	; 184
     eaa:	f0 78       	andi	r31, 0x80	; 128
	...
     eb8:	1c 00       	.word	0x001c	; ????
     eba:	1c 00       	.word	0x001c	; ????
     ebc:	1c 00       	.word	0x001c	; ????
     ebe:	1c 00       	.word	0x001c	; ????
     ec0:	1c 00       	.word	0x001c	; ????
     ec2:	1c 00       	.word	0x001c	; ????
     ec4:	9c 07       	cpc	r25, r28
     ec6:	dc 1f       	adc	r29, r28
     ec8:	7c 1c       	adc	r7, r12
     eca:	3c 38       	cpi	r19, 0x8C	; 140
     ecc:	1c 38       	cpi	r17, 0x8C	; 140
     ece:	1c 38       	cpi	r17, 0x8C	; 140
     ed0:	1c 38       	cpi	r17, 0x8C	; 140
     ed2:	1c 38       	cpi	r17, 0x8C	; 140
     ed4:	1c 38       	cpi	r17, 0x8C	; 140
     ed6:	1c 38       	cpi	r17, 0x8C	; 140
     ed8:	1c 1c       	adc	r1, r12
     eda:	3c 1e       	adc	r3, r28
     edc:	fc 0f       	add	r31, r28
     ede:	cc 07       	cpc	r28, r28
	...
     ef8:	c0 1f       	adc	r28, r16
     efa:	f0 3f       	cpi	r31, 0xF0	; 240
     efc:	78 20       	and	r7, r8
     efe:	38 00       	.word	0x0038	; ????
     f00:	1c 00       	.word	0x001c	; ????
     f02:	1c 00       	.word	0x001c	; ????
     f04:	1c 00       	.word	0x001c	; ????
     f06:	1c 00       	.word	0x001c	; ????
     f08:	1c 00       	.word	0x001c	; ????
     f0a:	3c 00       	.word	0x003c	; ????
     f0c:	38 00       	.word	0x0038	; ????
     f0e:	f8 20       	and	r15, r8
     f10:	f0 3f       	cpi	r31, 0xF0	; 240
     f12:	c0 1f       	adc	r28, r16
	...
     f20:	00 70       	andi	r16, 0x00	; 0
     f22:	00 70       	andi	r16, 0x00	; 0
     f24:	00 70       	andi	r16, 0x00	; 0
     f26:	00 70       	andi	r16, 0x00	; 0
     f28:	00 70       	andi	r16, 0x00	; 0
     f2a:	00 70       	andi	r16, 0x00	; 0
     f2c:	c0 73       	andi	r28, 0x30	; 48
     f2e:	f0 7f       	andi	r31, 0xF0	; 240
     f30:	78 7c       	andi	r23, 0xC8	; 200
     f32:	38 70       	andi	r19, 0x08	; 8
     f34:	1c 70       	andi	r17, 0x0C	; 12
     f36:	1c 70       	andi	r17, 0x0C	; 12
     f38:	1c 70       	andi	r17, 0x0C	; 12
     f3a:	1c 70       	andi	r17, 0x0C	; 12
     f3c:	1c 70       	andi	r17, 0x0C	; 12
     f3e:	1c 70       	andi	r17, 0x0C	; 12
     f40:	3c 78       	andi	r19, 0x8C	; 140
     f42:	38 7c       	andi	r19, 0xC8	; 200
     f44:	f0 77       	andi	r31, 0x70	; 112
     f46:	e0 73       	andi	r30, 0x30	; 48
	...
     f60:	c0 07       	cpc	r28, r16
     f62:	f0 0f       	add	r31, r16
     f64:	78 1c       	adc	r7, r8
     f66:	38 38       	cpi	r19, 0x88	; 136
     f68:	1c 38       	cpi	r17, 0x8C	; 140
     f6a:	1c 38       	cpi	r17, 0x8C	; 140
     f6c:	fc 3f       	cpi	r31, 0xFC	; 252
     f6e:	fc 3f       	cpi	r31, 0xFC	; 252
     f70:	1c 00       	.word	0x001c	; ????
     f72:	1c 00       	.word	0x001c	; ????
     f74:	38 00       	.word	0x0038	; ????
     f76:	78 20       	and	r7, r8
     f78:	f0 3f       	cpi	r31, 0xF0	; 240
     f7a:	c0 1f       	adc	r28, r16
	...
     f88:	00 ff       	sbrs	r16, 0
     f8a:	80 ff       	sbrs	r24, 0
     f8c:	c0 03       	fmuls	r20, r16
     f8e:	c0 01       	movw	r24, r0
     f90:	c0 01       	movw	r24, r0
     f92:	c0 01       	movw	r24, r0
     f94:	fc 7f       	andi	r31, 0xFC	; 252
     f96:	fc 7f       	andi	r31, 0xFC	; 252
     f98:	c0 01       	movw	r24, r0
     f9a:	c0 01       	movw	r24, r0
     f9c:	c0 01       	movw	r24, r0
     f9e:	c0 01       	movw	r24, r0
     fa0:	c0 01       	movw	r24, r0
     fa2:	c0 01       	movw	r24, r0
     fa4:	c0 01       	movw	r24, r0
     fa6:	c0 01       	movw	r24, r0
     fa8:	c0 01       	movw	r24, r0
     faa:	c0 01       	movw	r24, r0
     fac:	c0 01       	movw	r24, r0
     fae:	c0 01       	movw	r24, r0
	...
     fc8:	c0 73       	andi	r28, 0x30	; 48
     fca:	f0 7f       	andi	r31, 0xF0	; 240
     fcc:	78 7c       	andi	r23, 0xC8	; 200
     fce:	38 70       	andi	r19, 0x08	; 8
     fd0:	1c 70       	andi	r17, 0x0C	; 12
     fd2:	1c 70       	andi	r17, 0x0C	; 12
     fd4:	1c 70       	andi	r17, 0x0C	; 12
     fd6:	1c 70       	andi	r17, 0x0C	; 12
     fd8:	1c 70       	andi	r17, 0x0C	; 12
     fda:	1c 70       	andi	r17, 0x0C	; 12
     fdc:	3c 78       	andi	r19, 0x8C	; 140
     fde:	38 7c       	andi	r19, 0xC8	; 200
     fe0:	f0 77       	andi	r31, 0x70	; 112
     fe2:	e0 73       	andi	r30, 0x30	; 48
     fe4:	00 70       	andi	r16, 0x00	; 0
     fe6:	00 38       	cpi	r16, 0x80	; 128
     fe8:	18 3c       	cpi	r17, 0xC8	; 200
     fea:	f8 1f       	adc	r31, r24
     fec:	f0 07       	cpc	r31, r16
     fee:	00 00       	nop
     ff0:	1c 00       	.word	0x001c	; ????
     ff2:	1c 00       	.word	0x001c	; ????
     ff4:	1c 00       	.word	0x001c	; ????
     ff6:	1c 00       	.word	0x001c	; ????
     ff8:	1c 00       	.word	0x001c	; ????
     ffa:	1c 00       	.word	0x001c	; ????
     ffc:	1c 0f       	add	r17, r28
     ffe:	dc 1f       	adc	r29, r28
    1000:	7c 3c       	cpi	r23, 0xCC	; 204
    1002:	3c 38       	cpi	r19, 0x8C	; 140
    1004:	1c 38       	cpi	r17, 0x8C	; 140
    1006:	1c 38       	cpi	r17, 0x8C	; 140
    1008:	1c 38       	cpi	r17, 0x8C	; 140
    100a:	1c 38       	cpi	r17, 0x8C	; 140
    100c:	1c 38       	cpi	r17, 0x8C	; 140
    100e:	1c 38       	cpi	r17, 0x8C	; 140
    1010:	1c 38       	cpi	r17, 0x8C	; 140
    1012:	1c 38       	cpi	r17, 0x8C	; 140
    1014:	1c 38       	cpi	r17, 0x8C	; 140
    1016:	1c 38       	cpi	r17, 0x8C	; 140
	...
    1024:	80 03       	fmuls	r16, r16
    1026:	80 03       	fmuls	r16, r16
    1028:	80 03       	fmuls	r16, r16
    102a:	00 00       	nop
    102c:	00 00       	nop
    102e:	00 00       	nop
    1030:	fc 03       	fmulsu	r23, r20
    1032:	fc 03       	fmulsu	r23, r20
    1034:	80 03       	fmuls	r16, r16
    1036:	80 03       	fmuls	r16, r16
    1038:	80 03       	fmuls	r16, r16
    103a:	80 03       	fmuls	r16, r16
    103c:	80 03       	fmuls	r16, r16
    103e:	80 03       	fmuls	r16, r16
    1040:	80 03       	fmuls	r16, r16
    1042:	80 03       	fmuls	r16, r16
    1044:	80 03       	fmuls	r16, r16
    1046:	80 03       	fmuls	r16, r16
    1048:	80 03       	fmuls	r16, r16
    104a:	80 03       	fmuls	r16, r16
	...
    1058:	00 0e       	add	r0, r16
    105a:	00 0e       	add	r0, r16
    105c:	00 0e       	add	r0, r16
    105e:	00 00       	nop
    1060:	00 00       	nop
    1062:	00 00       	nop
    1064:	f8 0f       	add	r31, r24
    1066:	f8 0f       	add	r31, r24
    1068:	00 0e       	add	r0, r16
    106a:	00 0e       	add	r0, r16
    106c:	00 0e       	add	r0, r16
    106e:	00 0e       	add	r0, r16
    1070:	00 0e       	add	r0, r16
    1072:	00 0e       	add	r0, r16
    1074:	00 0e       	add	r0, r16
    1076:	00 0e       	add	r0, r16
    1078:	00 0e       	add	r0, r16
    107a:	00 0e       	add	r0, r16
    107c:	00 0e       	add	r0, r16
    107e:	00 0e       	add	r0, r16
    1080:	00 0e       	add	r0, r16
    1082:	00 0e       	add	r0, r16
    1084:	04 07       	cpc	r16, r20
    1086:	fc 07       	cpc	r31, r28
    1088:	f8 01       	movw	r30, r16
    108a:	00 00       	nop
    108c:	38 00       	.word	0x0038	; ????
    108e:	38 00       	.word	0x0038	; ????
    1090:	38 00       	.word	0x0038	; ????
    1092:	38 00       	.word	0x0038	; ????
    1094:	38 00       	.word	0x0038	; ????
    1096:	38 00       	.word	0x0038	; ????
    1098:	38 3c       	cpi	r19, 0xC8	; 200
    109a:	38 1e       	adc	r3, r24
    109c:	38 0e       	add	r3, r24
    109e:	38 0f       	add	r19, r24
    10a0:	b8 07       	cpc	r27, r24
    10a2:	b8 03       	fmulsu	r19, r16
    10a4:	f8 03       	fmulsu	r23, r16
    10a6:	b8 03       	fmulsu	r19, r16
    10a8:	b8 07       	cpc	r27, r24
    10aa:	38 0f       	add	r19, r24
    10ac:	38 0e       	add	r3, r24
    10ae:	38 1e       	adc	r3, r24
    10b0:	38 3c       	cpi	r19, 0xC8	; 200
    10b2:	38 78       	andi	r19, 0x88	; 136
	...
    10c0:	f8 07       	cpc	r31, r24
    10c2:	f8 07       	cpc	r31, r24
    10c4:	00 07       	cpc	r16, r16
    10c6:	00 07       	cpc	r16, r16
    10c8:	00 07       	cpc	r16, r16
    10ca:	00 07       	cpc	r16, r16
    10cc:	00 07       	cpc	r16, r16
    10ce:	00 07       	cpc	r16, r16
    10d0:	00 07       	cpc	r16, r16
    10d2:	00 07       	cpc	r16, r16
    10d4:	00 07       	cpc	r16, r16
    10d6:	00 07       	cpc	r16, r16
    10d8:	00 07       	cpc	r16, r16
    10da:	00 07       	cpc	r16, r16
    10dc:	00 07       	cpc	r16, r16
    10de:	00 07       	cpc	r16, r16
    10e0:	00 07       	cpc	r16, r16
    10e2:	00 07       	cpc	r16, r16
    10e4:	00 07       	cpc	r16, r16
    10e6:	00 07       	cpc	r16, r16
	...
    1100:	ce 31       	cpi	r28, 0x1E	; 30
    1102:	ee 79       	andi	r30, 0x9E	; 158
    1104:	fe 7f       	andi	r31, 0xFE	; 254
    1106:	9e 77       	andi	r25, 0x7E	; 126
    1108:	9e 73       	andi	r25, 0x3E	; 62
    110a:	8e 73       	andi	r24, 0x3E	; 62
    110c:	8e 73       	andi	r24, 0x3E	; 62
    110e:	8e 73       	andi	r24, 0x3E	; 62
    1110:	8e 73       	andi	r24, 0x3E	; 62
    1112:	8e 73       	andi	r24, 0x3E	; 62
    1114:	8e 73       	andi	r24, 0x3E	; 62
    1116:	8e 73       	andi	r24, 0x3E	; 62
    1118:	8e 73       	andi	r24, 0x3E	; 62
    111a:	8e 73       	andi	r24, 0x3E	; 62
	...
    1134:	1c 0f       	add	r17, r28
    1136:	dc 1f       	adc	r29, r28
    1138:	7c 3c       	cpi	r23, 0xCC	; 204
    113a:	3c 38       	cpi	r19, 0x8C	; 140
    113c:	1c 38       	cpi	r17, 0x8C	; 140
    113e:	1c 38       	cpi	r17, 0x8C	; 140
    1140:	1c 38       	cpi	r17, 0x8C	; 140
    1142:	1c 38       	cpi	r17, 0x8C	; 140
    1144:	1c 38       	cpi	r17, 0x8C	; 140
    1146:	1c 38       	cpi	r17, 0x8C	; 140
    1148:	1c 38       	cpi	r17, 0x8C	; 140
    114a:	1c 38       	cpi	r17, 0x8C	; 140
    114c:	1c 38       	cpi	r17, 0x8C	; 140
    114e:	1c 38       	cpi	r17, 0x8C	; 140
	...
    1168:	e0 03       	fmuls	r22, r16
    116a:	f8 0f       	add	r31, r24
    116c:	3c 1e       	adc	r3, r28
    116e:	1c 1c       	adc	r1, r12
    1170:	0e 38       	cpi	r16, 0x8E	; 142
    1172:	0e 38       	cpi	r16, 0x8E	; 142
    1174:	0e 38       	cpi	r16, 0x8E	; 142
    1176:	0e 38       	cpi	r16, 0x8E	; 142
    1178:	0e 38       	cpi	r16, 0x8E	; 142
    117a:	0e 38       	cpi	r16, 0x8E	; 142
    117c:	1c 1c       	adc	r1, r12
    117e:	3c 1e       	adc	r3, r28
    1180:	f8 0f       	add	r31, r24
    1182:	e0 03       	fmuls	r22, r16
	...
    119c:	9c 07       	cpc	r25, r28
    119e:	dc 1f       	adc	r29, r28
    11a0:	7c 1c       	adc	r7, r12
    11a2:	3c 38       	cpi	r19, 0x8C	; 140
    11a4:	1c 38       	cpi	r17, 0x8C	; 140
    11a6:	1c 38       	cpi	r17, 0x8C	; 140
    11a8:	1c 38       	cpi	r17, 0x8C	; 140
    11aa:	1c 38       	cpi	r17, 0x8C	; 140
    11ac:	1c 38       	cpi	r17, 0x8C	; 140
    11ae:	1c 38       	cpi	r17, 0x8C	; 140
    11b0:	1c 1c       	adc	r1, r12
    11b2:	3c 1e       	adc	r3, r28
    11b4:	fc 0f       	add	r31, r28
    11b6:	9c 07       	cpc	r25, r28
    11b8:	1c 00       	.word	0x001c	; ????
    11ba:	1c 00       	.word	0x001c	; ????
    11bc:	1c 00       	.word	0x001c	; ????
    11be:	1c 00       	.word	0x001c	; ????
    11c0:	1c 00       	.word	0x001c	; ????
	...
    11ce:	00 00       	nop
    11d0:	e0 39       	cpi	r30, 0x90	; 144
    11d2:	f8 3f       	cpi	r31, 0xF8	; 248
    11d4:	3c 3e       	cpi	r19, 0xEC	; 236
    11d6:	1c 38       	cpi	r17, 0x8C	; 140
    11d8:	0e 38       	cpi	r16, 0x8E	; 142
    11da:	0e 38       	cpi	r16, 0x8E	; 142
    11dc:	0e 38       	cpi	r16, 0x8E	; 142
    11de:	0e 38       	cpi	r16, 0x8E	; 142
    11e0:	0e 38       	cpi	r16, 0x8E	; 142
    11e2:	0e 38       	cpi	r16, 0x8E	; 142
    11e4:	1e 3c       	cpi	r17, 0xCE	; 206
    11e6:	1c 3e       	cpi	r17, 0xEC	; 236
    11e8:	f8 3b       	cpi	r31, 0xB8	; 184
    11ea:	f0 38       	cpi	r31, 0x80	; 128
    11ec:	00 38       	cpi	r16, 0x80	; 128
    11ee:	00 38       	cpi	r16, 0x80	; 128
    11f0:	00 38       	cpi	r16, 0x80	; 128
    11f2:	00 38       	cpi	r16, 0x80	; 128
    11f4:	00 38       	cpi	r16, 0x80	; 128
	...
    1202:	00 00       	nop
    1204:	70 3e       	cpi	r23, 0xE0	; 224
    1206:	70 3f       	cpi	r23, 0xF0	; 240
    1208:	f0 31       	cpi	r31, 0x10	; 16
    120a:	f0 30       	cpi	r31, 0x00	; 0
    120c:	70 00       	.word	0x0070	; ????
    120e:	70 00       	.word	0x0070	; ????
    1210:	70 00       	.word	0x0070	; ????
    1212:	70 00       	.word	0x0070	; ????
    1214:	70 00       	.word	0x0070	; ????
    1216:	70 00       	.word	0x0070	; ????
    1218:	70 00       	.word	0x0070	; ????
    121a:	70 00       	.word	0x0070	; ????
    121c:	70 00       	.word	0x0070	; ????
    121e:	70 00       	.word	0x0070	; ????
	...
    1238:	e0 0f       	add	r30, r16
    123a:	f0 1f       	adc	r31, r16
    123c:	78 10       	cpse	r7, r8
    123e:	38 00       	.word	0x0038	; ????
    1240:	38 00       	.word	0x0038	; ????
    1242:	f8 01       	movw	r30, r16
    1244:	f0 07       	cpc	r31, r16
    1246:	80 1f       	adc	r24, r16
    1248:	00 3c       	cpi	r16, 0xC0	; 192
    124a:	00 38       	cpi	r16, 0x80	; 128
    124c:	00 38       	cpi	r16, 0x80	; 128
    124e:	18 3c       	cpi	r17, 0xC8	; 200
    1250:	f8 1f       	adc	r31, r24
    1252:	f0 07       	cpc	r31, r16
	...
    1268:	e0 00       	.word	0x00e0	; ????
    126a:	e0 00       	.word	0x00e0	; ????
    126c:	fc 3f       	cpi	r31, 0xFC	; 252
    126e:	fc 3f       	cpi	r31, 0xFC	; 252
    1270:	e0 00       	.word	0x00e0	; ????
    1272:	e0 00       	.word	0x00e0	; ????
    1274:	e0 00       	.word	0x00e0	; ????
    1276:	e0 00       	.word	0x00e0	; ????
    1278:	e0 00       	.word	0x00e0	; ????
    127a:	e0 00       	.word	0x00e0	; ????
    127c:	e0 00       	.word	0x00e0	; ????
    127e:	e0 00       	.word	0x00e0	; ????
    1280:	e0 00       	.word	0x00e0	; ????
    1282:	e0 01       	movw	r28, r0
    1284:	c0 3f       	cpi	r28, 0xF0	; 240
    1286:	80 3f       	cpi	r24, 0xF0	; 240
	...
    12a0:	1c 38       	cpi	r17, 0x8C	; 140
    12a2:	1c 38       	cpi	r17, 0x8C	; 140
    12a4:	1c 38       	cpi	r17, 0x8C	; 140
    12a6:	1c 38       	cpi	r17, 0x8C	; 140
    12a8:	1c 38       	cpi	r17, 0x8C	; 140
    12aa:	1c 38       	cpi	r17, 0x8C	; 140
    12ac:	1c 38       	cpi	r17, 0x8C	; 140
    12ae:	1c 38       	cpi	r17, 0x8C	; 140
    12b0:	1c 38       	cpi	r17, 0x8C	; 140
    12b2:	1c 38       	cpi	r17, 0x8C	; 140
    12b4:	1c 3c       	cpi	r17, 0xCC	; 204
    12b6:	3c 3e       	cpi	r19, 0xEC	; 236
    12b8:	f8 3b       	cpi	r31, 0xB8	; 184
    12ba:	f0 38       	cpi	r31, 0x80	; 128
	...
    12d4:	1e 70       	andi	r17, 0x0E	; 14
    12d6:	1c 38       	cpi	r17, 0x8C	; 140
    12d8:	1c 38       	cpi	r17, 0x8C	; 140
    12da:	3c 38       	cpi	r19, 0x8C	; 140
    12dc:	38 18       	sub	r3, r8
    12de:	38 1c       	adc	r3, r8
    12e0:	70 1c       	adc	r7, r0
    12e2:	70 0c       	add	r7, r0
    12e4:	e0 0e       	add	r14, r16
    12e6:	e0 0e       	add	r14, r16
    12e8:	e0 06       	cpc	r14, r16
    12ea:	c0 07       	cpc	r28, r16
    12ec:	c0 07       	cpc	r28, r16
    12ee:	80 03       	fmuls	r16, r16
	...
    1308:	03 c0       	rjmp	.+6      	; 0x1310 <__stack+0xa11>
    130a:	87 c3       	rjmp	.+1806   	; 0x1a1a <startUp+0x3c>
    130c:	87 43       	sbci	r24, 0x37	; 55
    130e:	c6 63       	ori	r28, 0x36	; 54
    1310:	c6 63       	ori	r28, 0x36	; 54
    1312:	46 62       	ori	r20, 0x26	; 38
    1314:	6e 66       	ori	r22, 0x6E	; 110
    1316:	6e 26       	eor	r6, r30
    1318:	6c 36       	cpi	r22, 0x6C	; 108
    131a:	2c 36       	cpi	r18, 0x6C	; 108
    131c:	3c 3c       	cpi	r19, 0xCC	; 204
    131e:	3c 3c       	cpi	r19, 0xCC	; 204
    1320:	3c 1c       	adc	r3, r12
    1322:	18 1c       	adc	r1, r8
	...
    133c:	1e 30       	cpi	r17, 0x0E	; 14
    133e:	3c 18       	sub	r3, r12
    1340:	78 0c       	add	r7, r8
    1342:	70 0e       	add	r7, r16
    1344:	f0 06       	cpc	r15, r16
    1346:	e0 03       	fmuls	r22, r16
    1348:	c0 03       	fmuls	r20, r16
    134a:	c0 03       	fmuls	r20, r16
    134c:	e0 07       	cpc	r30, r16
    134e:	70 0f       	add	r23, r16
    1350:	30 0e       	add	r3, r16
    1352:	38 1e       	adc	r3, r24
    1354:	1c 3c       	cpi	r17, 0xCC	; 204
    1356:	0e 78       	andi	r16, 0x8E	; 142
	...
    1370:	1e 70       	andi	r17, 0x0E	; 14
    1372:	1c 30       	cpi	r17, 0x0C	; 12
    1374:	1c 38       	cpi	r17, 0x8C	; 140
    1376:	38 18       	sub	r3, r8
    1378:	38 1c       	adc	r3, r8
    137a:	78 1c       	adc	r7, r8
    137c:	70 0e       	add	r7, r16
    137e:	f0 0e       	add	r15, r16
    1380:	e0 07       	cpc	r30, r16
    1382:	e0 07       	cpc	r30, r16
    1384:	c0 03       	fmuls	r20, r16
    1386:	c0 03       	fmuls	r20, r16
    1388:	c0 01       	movw	r24, r0
    138a:	80 01       	movw	r16, r0
    138c:	c0 01       	movw	r24, r0
    138e:	c0 00       	.word	0x00c0	; ????
    1390:	e0 00       	.word	0x00e0	; ????
    1392:	7c 00       	.word	0x007c	; ????
    1394:	3c 00       	.word	0x003c	; ????
	...
    13a2:	00 00       	nop
    13a4:	fc 3f       	cpi	r31, 0xFC	; 252
    13a6:	fc 3f       	cpi	r31, 0xFC	; 252
    13a8:	00 38       	cpi	r16, 0x80	; 128
    13aa:	00 1c       	adc	r0, r0
    13ac:	00 0e       	add	r0, r16
    13ae:	00 07       	cpc	r16, r16
    13b0:	80 03       	fmuls	r16, r16
    13b2:	c0 01       	movw	r24, r0
    13b4:	e0 00       	.word	0x00e0	; ????
    13b6:	70 00       	.word	0x0070	; ????
    13b8:	38 00       	.word	0x0038	; ????
    13ba:	1c 00       	.word	0x001c	; ????
    13bc:	fc 3f       	cpi	r31, 0xFC	; 252
    13be:	fc 3f       	cpi	r31, 0xFC	; 252
	...
    13cc:	00 1f       	adc	r16, r16
    13ce:	80 1f       	adc	r24, r16
    13d0:	c0 03       	fmuls	r20, r16
    13d2:	c0 01       	movw	r24, r0
    13d4:	c0 01       	movw	r24, r0
    13d6:	c0 01       	movw	r24, r0
    13d8:	80 03       	fmuls	r16, r16
    13da:	80 03       	fmuls	r16, r16
    13dc:	80 03       	fmuls	r16, r16
    13de:	80 03       	fmuls	r16, r16
    13e0:	c0 01       	movw	r24, r0
    13e2:	f8 00       	.word	0x00f8	; ????
    13e4:	f8 00       	.word	0x00f8	; ????
    13e6:	c0 01       	movw	r24, r0
    13e8:	80 03       	fmuls	r16, r16
    13ea:	80 03       	fmuls	r16, r16
    13ec:	80 03       	fmuls	r16, r16
    13ee:	80 03       	fmuls	r16, r16
    13f0:	c0 01       	movw	r24, r0
    13f2:	c0 01       	movw	r24, r0
    13f4:	c0 01       	movw	r24, r0
    13f6:	c0 03       	fmuls	r20, r16
    13f8:	80 1f       	adc	r24, r16
    13fa:	00 1f       	adc	r16, r16
    13fc:	00 00       	nop
    13fe:	00 00       	nop
    1400:	80 01       	movw	r16, r0
    1402:	80 01       	movw	r16, r0
    1404:	80 01       	movw	r16, r0
    1406:	80 01       	movw	r16, r0
    1408:	80 01       	movw	r16, r0
    140a:	80 01       	movw	r16, r0
    140c:	80 01       	movw	r16, r0
    140e:	80 01       	movw	r16, r0
    1410:	80 01       	movw	r16, r0
    1412:	80 01       	movw	r16, r0
    1414:	80 01       	movw	r16, r0
    1416:	80 01       	movw	r16, r0
    1418:	80 01       	movw	r16, r0
    141a:	80 01       	movw	r16, r0
    141c:	80 01       	movw	r16, r0
    141e:	80 01       	movw	r16, r0
    1420:	80 01       	movw	r16, r0
    1422:	80 01       	movw	r16, r0
    1424:	80 01       	movw	r16, r0
    1426:	80 01       	movw	r16, r0
    1428:	80 01       	movw	r16, r0
    142a:	80 01       	movw	r16, r0
    142c:	80 01       	movw	r16, r0
    142e:	80 01       	movw	r16, r0
    1430:	00 00       	nop
    1432:	00 00       	nop
    1434:	7c 00       	.word	0x007c	; ????
    1436:	fc 00       	.word	0x00fc	; ????
    1438:	e0 01       	movw	r28, r0
    143a:	c0 01       	movw	r24, r0
    143c:	c0 01       	movw	r24, r0
    143e:	c0 01       	movw	r24, r0
    1440:	e0 00       	.word	0x00e0	; ????
    1442:	e0 00       	.word	0x00e0	; ????
    1444:	e0 00       	.word	0x00e0	; ????
    1446:	e0 00       	.word	0x00e0	; ????
    1448:	c0 01       	movw	r24, r0
    144a:	80 0f       	add	r24, r16
    144c:	80 0f       	add	r24, r16
    144e:	c0 01       	movw	r24, r0
    1450:	e0 00       	.word	0x00e0	; ????
    1452:	e0 00       	.word	0x00e0	; ????
    1454:	e0 00       	.word	0x00e0	; ????
    1456:	e0 00       	.word	0x00e0	; ????
    1458:	c0 01       	movw	r24, r0
    145a:	c0 01       	movw	r24, r0
    145c:	c0 01       	movw	r24, r0
    145e:	e0 01       	movw	r28, r0
    1460:	fc 00       	.word	0x00fc	; ????
    1462:	7c 00       	.word	0x007c	; ????
	...
    147c:	00 00       	nop
    147e:	78 60       	ori	r23, 0x08	; 8
    1480:	fc 63       	ori	r31, 0x3C	; 60
    1482:	c6 3f       	cpi	r28, 0xF6	; 246
    1484:	06 1e       	adc	r0, r22
	...
    14a2:	00 00       	nop
    14a4:	f8 0f       	add	r31, r24
    14a6:	08 08       	sbc	r0, r8
    14a8:	08 08       	sbc	r0, r8
    14aa:	08 08       	sbc	r0, r8
    14ac:	08 08       	sbc	r0, r8
    14ae:	08 08       	sbc	r0, r8
    14b0:	08 08       	sbc	r0, r8
    14b2:	08 08       	sbc	r0, r8
    14b4:	08 08       	sbc	r0, r8
    14b6:	08 08       	sbc	r0, r8
    14b8:	08 08       	sbc	r0, r8
    14ba:	08 08       	sbc	r0, r8
    14bc:	08 08       	sbc	r0, r8
    14be:	08 08       	sbc	r0, r8
    14c0:	08 08       	sbc	r0, r8
    14c2:	f8 0f       	add	r31, r24
	...

000014ce <font_8x12R>:
	...
    14da:	00 0c 1e 1e 1e 0c 0c 00 0c 0c 00 00 00 66 66 66     .............fff
    14ea:	24 00 00 00 00 00 00 00 00 36 36 7f 36 36 36 7f     $........66.666.
    14fa:	36 36 00 00 0c 0c 3e 03 03 1e 30 30 1f 0c 0c 00     66....>...00....
    150a:	00 00 00 23 33 18 0c 06 33 31 00 00 00 0e 1b 1b     ...#3...31......
    151a:	0e 5f 7b 33 3b 6e 00 00 00 0c 0c 0c 06 00 00 00     ._{3;n..........
    152a:	00 00 00 00 00 30 18 0c 06 06 06 0c 18 30 00 00     .....0.......0..
    153a:	00 06 0c 18 30 30 30 18 0c 06 00 00 00 00 00 66     ....000........f
    154a:	3c ff 3c 66 00 00 00 00 00 00 00 18 18 7e 18 18     <.<f.........~..
	...
    1566:	1c 1c 06 00 00 00 00 00 00 7f 00 00 00 00 00 00     ................
	...
    157e:	1c 1c 00 00 00 00 40 60 30 18 0c 06 03 01 00 00     ......@`0.......
    158e:	00 3e 63 73 7b 6b 6f 67 63 3e 00 00 00 08 0c 0f     .>cs{kogc>......
    159e:	0c 0c 0c 0c 0c 3f 00 00 00 1e 33 33 30 18 0c 06     .....?....330...
    15ae:	33 3f 00 00 00 1e 33 30 30 1c 30 30 33 1e 00 00     3?....300.003...
    15be:	00 30 38 3c 36 33 7f 30 30 78 00 00 00 3f 03 03     .08<63.00x...?..
    15ce:	03 1f 30 30 33 1e 00 00 00 1c 06 03 03 1f 33 33     ..003.........33
    15de:	33 1e 00 00 00 7f 63 63 60 30 18 0c 0c 0c 00 00     3.....cc`0......
    15ee:	00 1e 33 33 33 1e 33 33 33 1e 00 00 00 1e 33 33     ..333.333.....33
    15fe:	33 3e 18 18 0c 0e 00 00 00 00 00 1c 1c 00 00 1c     3>..............
    160e:	1c 00 00 00 00 00 00 1c 1c 00 00 1c 1c 18 0c 00     ................
    161e:	00 30 18 0c 06 03 06 0c 18 30 00 00 00 00 00 00     .0.......0......
    162e:	7e 00 7e 00 00 00 00 00 00 06 0c 18 30 60 30 18     ~.~.........0`0.
    163e:	0c 06 00 00 00 1e 33 30 18 0c 0c 00 0c 0c 00 00     ......30........
    164e:	00 3e 63 63 7b 7b 7b 03 03 3e 00 00 00 0c 1e 33     .>cc{{{..>.....3
    165e:	33 33 3f 33 33 33 00 00 00 3f 66 66 66 3e 66 66     33?333...?fff>ff
    166e:	66 3f 00 00 00 3c 66 63 03 03 03 63 66 3c 00 00     f?...<fc...cf<..
    167e:	00 1f 36 66 66 66 66 66 36 1f 00 00 00 7f 46 06     ..6fffff6.....F.
    168e:	26 3e 26 06 46 7f 00 00 00 7f 66 46 26 3e 26 06     &>&.F.....fF&>&.
    169e:	06 0f 00 00 00 3c 66 63 03 03 73 63 66 7c 00 00     .....<fc..scf|..
    16ae:	00 33 33 33 33 3f 33 33 33 33 00 00 00 1e 0c 0c     .3333?3333......
    16be:	0c 0c 0c 0c 0c 1e 00 00 00 78 30 30 30 30 33 33     .........x000033
    16ce:	33 1e 00 00 00 67 66 36 36 1e 36 36 66 67 00 00     3....gf66.66fg..
    16de:	00 0f 06 06 06 06 46 66 66 7f 00 00 00 63 77 7f     ......Fff....cw.
    16ee:	7f 6b 63 63 63 63 00 00 00 63 63 67 6f 7f 7b 73     .kcccc...ccgo.{s
    16fe:	63 63 00 00 00 1c 36 63 63 63 63 63 36 1c 00 00     cc....6ccccc6...
    170e:	00 3f 66 66 66 3e 06 06 06 0f 00 00 00 1c 36 63     .?fff>........6c
    171e:	63 63 73 7b 3e 30 78 00 00 3f 66 66 66 3e 36 66     ccs{>0x..?fff>6f
    172e:	66 67 00 00 00 1e 33 33 03 0e 18 33 33 1e 00 00     fg....33...33...
    173e:	00 3f 2d 0c 0c 0c 0c 0c 0c 1e 00 00 00 33 33 33     .?-..........333
    174e:	33 33 33 33 33 1e 00 00 00 33 33 33 33 33 33 33     33333....3333333
    175e:	1e 0c 00 00 00 63 63 63 63 6b 6b 36 36 36 00 00     .....cccckk666..
    176e:	00 33 33 33 1e 0c 1e 33 33 33 00 00 00 33 33 33     .333...333...333
    177e:	33 1e 0c 0c 0c 1e 00 00 00 7f 73 19 18 0c 06 46     3.........s....F
    178e:	63 7f 00 00 00 3c 0c 0c 0c 0c 0c 0c 0c 3c 00 00     c....<.......<..
    179e:	00 00 01 03 06 0c 18 30 60 40 00 00 00 3c 30 30     .......0`@...<00
    17ae:	30 30 30 30 30 3c 00 00 08 1c 36 63 00 00 00 00     00000<....6c....
	...
    17ca:	00 00 ff 00 0c 0c 18 00 00 00 00 00 00 00 00 00     ................
    17da:	00 00 00 00 1e 30 3e 33 33 6e 00 00 00 07 06 06     .....0>33n......
    17ea:	3e 66 66 66 66 3b 00 00 00 00 00 00 1e 33 03 03     >ffff;.......3..
    17fa:	33 1e 00 00 00 38 30 30 3e 33 33 33 33 6e 00 00     3....800>3333n..
    180a:	00 00 00 00 1e 33 3f 03 33 1e 00 00 00 1c 36 06     .....3?.3.....6.
    181a:	06 1f 06 06 06 0f 00 00 00 00 00 00 6e 33 33 33     ............n333
    182a:	3e 30 33 1e 00 07 06 06 36 6e 66 66 66 67 00 00     >03.....6nfffg..
    183a:	00 18 18 00 1e 18 18 18 18 7e 00 00 00 30 30 00     .........~...00.
    184a:	3c 30 30 30 30 33 33 1e 00 07 06 06 66 36 1e 36     <000033.....f6.6
    185a:	66 67 00 00 00 1e 18 18 18 18 18 18 18 7e 00 00     fg...........~..
    186a:	00 00 00 00 3f 6b 6b 6b 6b 63 00 00 00 00 00 00     ....?kkkkc......
    187a:	1f 33 33 33 33 33 00 00 00 00 00 00 1e 33 33 33     .33333.......333
    188a:	33 1e 00 00 00 00 00 00 3b 66 66 66 66 3e 06 0f     3.......;ffff>..
    189a:	00 00 00 00 6e 33 33 33 33 3e 30 78 00 00 00 00     ....n3333>0x....
    18aa:	37 76 6e 06 06 0f 00 00 00 00 00 00 1e 33 06 18     7vn..........3..
    18ba:	33 1e 00 00 00 00 04 06 3f 06 06 06 36 1c 00 00     3.......?...6...
    18ca:	00 00 00 00 33 33 33 33 33 6e 00 00 00 00 00 00     ....33333n......
    18da:	33 33 33 33 1e 0c 00 00 00 00 00 00 63 63 6b 6b     3333........cckk
    18ea:	36 36 00 00 00 00 00 00 63 36 1c 1c 36 63 00 00     66......c6..6c..
    18fa:	00 00 00 00 66 66 66 66 3c 30 18 0f 00 00 00 00     ....ffff<0......
    190a:	3f 31 18 06 23 3f 00 00 00 38 0c 0c 06 03 06 0c     ?1..#?...8......
    191a:	0c 38 00 00 00 18 18 18 18 00 18 18 18 18 00 00     .8..............
    192a:	00 07 0c 0c 18 30 18 0c 0c 07 00 00 00 ce 5b 73     .....0........[s
	...
    1942:	00 00 00 08 1c 36 63 63 7f 00 00 00                 .....6cc....

0000194e <__ctors_end>:
    194e:	11 24       	eor	r1, r1
    1950:	1f be       	out	0x3f, r1	; 63
    1952:	cf ef       	ldi	r28, 0xFF	; 255
    1954:	d8 e0       	ldi	r29, 0x08	; 8
    1956:	de bf       	out	0x3e, r29	; 62
    1958:	cd bf       	out	0x3d, r28	; 61

0000195a <__do_copy_data>:
    195a:	11 e0       	ldi	r17, 0x01	; 1
    195c:	a0 e0       	ldi	r26, 0x00	; 0
    195e:	b1 e0       	ldi	r27, 0x01	; 1
    1960:	e4 e9       	ldi	r30, 0x94	; 148
    1962:	fb e3       	ldi	r31, 0x3B	; 59
    1964:	02 c0       	rjmp	.+4      	; 0x196a <__do_copy_data+0x10>
    1966:	05 90       	lpm	r0, Z+
    1968:	0d 92       	st	X+, r0
    196a:	a8 3b       	cpi	r26, 0xB8	; 184
    196c:	b1 07       	cpc	r27, r17
    196e:	d9 f7       	brne	.-10     	; 0x1966 <__do_copy_data+0xc>

00001970 <__do_clear_bss>:
    1970:	22 e0       	ldi	r18, 0x02	; 2
    1972:	a8 eb       	ldi	r26, 0xB8	; 184
    1974:	b1 e0       	ldi	r27, 0x01	; 1
    1976:	01 c0       	rjmp	.+2      	; 0x197a <.do_clear_bss_start>

00001978 <.do_clear_bss_loop>:
    1978:	1d 92       	st	X+, r1

0000197a <.do_clear_bss_start>:
    197a:	a7 31       	cpi	r26, 0x17	; 23
    197c:	b2 07       	cpc	r27, r18
    197e:	e1 f7       	brne	.-8      	; 0x1978 <.do_clear_bss_loop>
    1980:	0e 94 cc 12 	call	0x2598	; 0x2598 <main>
    1984:	0c 94 c8 1d 	jmp	0x3b90	; 0x3b90 <_exit>

00001988 <__bad_interrupt>:
    1988:	0c 94 00 00 	jmp	0	; 0x0 <__vectors>

0000198c <startConversion>:
	startConversion();
}

void startConversion()
{
	ADCSRA |= (1 << ADSC); //Sets the ADC Start Conversion bit
    198c:	ea e7       	ldi	r30, 0x7A	; 122
    198e:	f0 e0       	ldi	r31, 0x00	; 0
    1990:	80 81       	ld	r24, Z
    1992:	80 64       	ori	r24, 0x40	; 64
    1994:	80 83       	st	Z, r24
    1996:	08 95       	ret

00001998 <init_ADC>:
#include "ADCHandler.h"
#include "Globals.h"

void init_ADC()
{
	ADMUX |= (1 << REFS0) | (0 << MUX0) | (0 << MUX1) | (0 << MUX2) | (0 << MUX3); //Select AVCC as reference and set ADC0 channel
    1998:	ec e7       	ldi	r30, 0x7C	; 124
    199a:	f0 e0       	ldi	r31, 0x00	; 0
    199c:	80 81       	ld	r24, Z
    199e:	80 64       	ori	r24, 0x40	; 64
    19a0:	80 83       	st	Z, r24
	ADCSRA |= (1 << ADEN) ; //Enable ADC
    19a2:	ea e7       	ldi	r30, 0x7A	; 122
    19a4:	f0 e0       	ldi	r31, 0x00	; 0
    19a6:	80 81       	ld	r24, Z
    19a8:	80 68       	ori	r24, 0x80	; 128
    19aa:	80 83       	st	Z, r24
	ADCSRA |= (1 << ADIE) ; //Enable ADC interrupt 
    19ac:	80 81       	ld	r24, Z
    19ae:	88 60       	ori	r24, 0x08	; 8
    19b0:	80 83       	st	Z, r24
	ADCSRA |= (1 << ADPS0) | (1 << ADPS1) | (1 << ADPS2); //Set prescaler to /128
    19b2:	80 81       	ld	r24, Z
    19b4:	87 60       	ori	r24, 0x07	; 7
    19b6:	80 83       	st	Z, r24
	DIDR0 |= (1 << ADC0D) ; //Enable ADC0
    19b8:	ee e7       	ldi	r30, 0x7E	; 126
    19ba:	f0 e0       	ldi	r31, 0x00	; 0
    19bc:	80 81       	ld	r24, Z
    19be:	81 60       	ori	r24, 0x01	; 1
    19c0:	80 83       	st	Z, r24
	startConversion();
    19c2:	0e 94 c6 0c 	call	0x198c	; 0x198c <startConversion>
    19c6:	08 95       	ret

000019c8 <disable_ADC>:
	ADCSRA |= (1 << ADSC); //Sets the ADC Start Conversion bit
}

void disable_ADC()
{
	ADCSRA &= 0x7F; //Set ADEN to 0
    19c8:	ea e7       	ldi	r30, 0x7A	; 122
    19ca:	f0 e0       	ldi	r31, 0x00	; 0
    19cc:	80 81       	ld	r24, Z
    19ce:	8f 77       	andi	r24, 0x7F	; 127
    19d0:	80 83       	st	Z, r24
	DIDR0 &= 0xFE; // Disable ADC0 with mask so other ADC's stay intact
    19d2:	ee e7       	ldi	r30, 0x7E	; 126
    19d4:	f0 e0       	ldi	r31, 0x00	; 0
    19d6:	80 81       	ld	r24, Z
    19d8:	8e 7f       	andi	r24, 0xFE	; 254
    19da:	80 83       	st	Z, r24
    19dc:	08 95       	ret

000019de <startUp>:
#include "MMINIT.h"
#include "ADCHandler.h"


void startUp()
{
    19de:	0f 93       	push	r16
    19e0:	1f 93       	push	r17
    19e2:	cf 93       	push	r28
    19e4:	df 93       	push	r29
	LCD_Init();
    19e6:	0e 94 71 12 	call	0x24e2	; 0x24e2 <LCD_Init>
	
	UG_FontSelect(&RFONT_16X26);
    19ea:	8d e9       	ldi	r24, 0x9D	; 157
    19ec:	91 e0       	ldi	r25, 0x01	; 1
    19ee:	0e 94 9e 14 	call	0x293c	; 0x293c <UG_FontSelect>
	UG_SetForecolor(C_GREEN);
    19f2:	80 ee       	ldi	r24, 0xE0	; 224
    19f4:	97 e0       	ldi	r25, 0x07	; 7
    19f6:	0e 94 df 15 	call	0x2bbe	; 0x2bbe <UG_SetForecolor>
	UG_SetBackcolor(C_BLACK);
    19fa:	80 e0       	ldi	r24, 0x00	; 0
    19fc:	90 e0       	ldi	r25, 0x00	; 0
    19fe:	0e 94 e6 15 	call	0x2bcc	; 0x2bcc <UG_SetBackcolor>

	UG_PutString(30,50,"MEGAFORCE");
    1a02:	42 e1       	ldi	r20, 0x12	; 18
    1a04:	51 e0       	ldi	r21, 0x01	; 1
    1a06:	62 e3       	ldi	r22, 0x32	; 50
    1a08:	70 e0       	ldi	r23, 0x00	; 0
    1a0a:	8e e1       	ldi	r24, 0x1E	; 30
    1a0c:	90 e0       	ldi	r25, 0x00	; 0
    1a0e:	0e 94 61 19 	call	0x32c2	; 0x32c2 <UG_PutString>
	UG_PutString(30,70,"FERMENTATOR");
    1a12:	4c e1       	ldi	r20, 0x1C	; 28
    1a14:	51 e0       	ldi	r21, 0x01	; 1
    1a16:	66 e4       	ldi	r22, 0x46	; 70
    1a18:	70 e0       	ldi	r23, 0x00	; 0
    1a1a:	8e e1       	ldi	r24, 0x1E	; 30
    1a1c:	90 e0       	ldi	r25, 0x00	; 0
    1a1e:	0e 94 61 19 	call	0x32c2	; 0x32c2 <UG_PutString>
	UG_PutString(30,90,"CHAMBER");
    1a22:	48 e2       	ldi	r20, 0x28	; 40
    1a24:	51 e0       	ldi	r21, 0x01	; 1
    1a26:	6a e5       	ldi	r22, 0x5A	; 90
    1a28:	70 e0       	ldi	r23, 0x00	; 0
    1a2a:	8e e1       	ldi	r24, 0x1E	; 30
    1a2c:	90 e0       	ldi	r25, 0x00	; 0
    1a2e:	0e 94 61 19 	call	0x32c2	; 0x32c2 <UG_PutString>
	#else
		//round up by default
		__ticks_dc = (uint32_t)(ceil(fabs(__tmp)));
	#endif

	__builtin_avr_delay_cycles(__ticks_dc);
    1a32:	83 ed       	ldi	r24, 0xD3	; 211
    1a34:	90 e3       	ldi	r25, 0x30	; 48
    1a36:	01 97       	sbiw	r24, 0x01	; 1
    1a38:	f1 f7       	brne	.-4      	; 0x1a36 <startUp+0x58>
    1a3a:	00 c0       	rjmp	.+0      	; 0x1a3c <startUp+0x5e>
    1a3c:	00 00       	nop
	
	_delay_ms(50);
	//Body
	UG_DrawLine(30,140,30,220,C_WHITE);
    1a3e:	0f ef       	ldi	r16, 0xFF	; 255
    1a40:	1f ef       	ldi	r17, 0xFF	; 255
    1a42:	2c ed       	ldi	r18, 0xDC	; 220
    1a44:	30 e0       	ldi	r19, 0x00	; 0
    1a46:	4e e1       	ldi	r20, 0x1E	; 30
    1a48:	50 e0       	ldi	r21, 0x00	; 0
    1a4a:	6c e8       	ldi	r22, 0x8C	; 140
    1a4c:	70 e0       	ldi	r23, 0x00	; 0
    1a4e:	8e e1       	ldi	r24, 0x1E	; 30
    1a50:	90 e0       	ldi	r25, 0x00	; 0
    1a52:	0e 94 0a 15 	call	0x2a14	; 0x2a14 <UG_DrawLine>
	UG_DrawLine(90,140,90,220,C_WHITE);
    1a56:	2c ed       	ldi	r18, 0xDC	; 220
    1a58:	30 e0       	ldi	r19, 0x00	; 0
    1a5a:	4a e5       	ldi	r20, 0x5A	; 90
    1a5c:	50 e0       	ldi	r21, 0x00	; 0
    1a5e:	6c e8       	ldi	r22, 0x8C	; 140
    1a60:	70 e0       	ldi	r23, 0x00	; 0
    1a62:	8a e5       	ldi	r24, 0x5A	; 90
    1a64:	90 e0       	ldi	r25, 0x00	; 0
    1a66:	0e 94 0a 15 	call	0x2a14	; 0x2a14 <UG_DrawLine>
	UG_DrawLine(30,220,90,220,C_WHITE);
    1a6a:	2c ed       	ldi	r18, 0xDC	; 220
    1a6c:	30 e0       	ldi	r19, 0x00	; 0
    1a6e:	4a e5       	ldi	r20, 0x5A	; 90
    1a70:	50 e0       	ldi	r21, 0x00	; 0
    1a72:	6c ed       	ldi	r22, 0xDC	; 220
    1a74:	70 e0       	ldi	r23, 0x00	; 0
    1a76:	8e e1       	ldi	r24, 0x1E	; 30
    1a78:	90 e0       	ldi	r25, 0x00	; 0
    1a7a:	0e 94 0a 15 	call	0x2a14	; 0x2a14 <UG_DrawLine>
	//Handle
	UG_DrawLine(90,160,110,160,C_WHITE);
    1a7e:	20 ea       	ldi	r18, 0xA0	; 160
    1a80:	30 e0       	ldi	r19, 0x00	; 0
    1a82:	4e e6       	ldi	r20, 0x6E	; 110
    1a84:	50 e0       	ldi	r21, 0x00	; 0
    1a86:	60 ea       	ldi	r22, 0xA0	; 160
    1a88:	70 e0       	ldi	r23, 0x00	; 0
    1a8a:	8a e5       	ldi	r24, 0x5A	; 90
    1a8c:	90 e0       	ldi	r25, 0x00	; 0
    1a8e:	0e 94 0a 15 	call	0x2a14	; 0x2a14 <UG_DrawLine>
	UG_DrawLine(90,190,110,190,C_WHITE);
    1a92:	2e eb       	ldi	r18, 0xBE	; 190
    1a94:	30 e0       	ldi	r19, 0x00	; 0
    1a96:	4e e6       	ldi	r20, 0x6E	; 110
    1a98:	50 e0       	ldi	r21, 0x00	; 0
    1a9a:	6e eb       	ldi	r22, 0xBE	; 190
    1a9c:	70 e0       	ldi	r23, 0x00	; 0
    1a9e:	8a e5       	ldi	r24, 0x5A	; 90
    1aa0:	90 e0       	ldi	r25, 0x00	; 0
    1aa2:	0e 94 0a 15 	call	0x2a14	; 0x2a14 <UG_DrawLine>
	UG_DrawLine(110,160,110,190,C_WHITE);
    1aa6:	2e eb       	ldi	r18, 0xBE	; 190
    1aa8:	30 e0       	ldi	r19, 0x00	; 0
    1aaa:	4e e6       	ldi	r20, 0x6E	; 110
    1aac:	50 e0       	ldi	r21, 0x00	; 0
    1aae:	60 ea       	ldi	r22, 0xA0	; 160
    1ab0:	70 e0       	ldi	r23, 0x00	; 0
    1ab2:	8e e6       	ldi	r24, 0x6E	; 110
    1ab4:	90 e0       	ldi	r25, 0x00	; 0
    1ab6:	0e 94 0a 15 	call	0x2a14	; 0x2a14 <UG_DrawLine>
    1aba:	cb ed       	ldi	r28, 0xDB	; 219
    1abc:	d0 e0       	ldi	r29, 0x00	; 0
	//Beer
	for (int i = 0; i < 70; i++)
		{
			UG_DrawLine(31,219-i,89,219-i,C_SANDY_BROWN);
    1abe:	0c e2       	ldi	r16, 0x2C	; 44
    1ac0:	15 ef       	ldi	r17, 0xF5	; 245
    1ac2:	9e 01       	movw	r18, r28
    1ac4:	49 e5       	ldi	r20, 0x59	; 89
    1ac6:	50 e0       	ldi	r21, 0x00	; 0
    1ac8:	be 01       	movw	r22, r28
    1aca:	8f e1       	ldi	r24, 0x1F	; 31
    1acc:	90 e0       	ldi	r25, 0x00	; 0
    1ace:	0e 94 0a 15 	call	0x2a14	; 0x2a14 <UG_DrawLine>
    1ad2:	9f e9       	ldi	r25, 0x9F	; 159
    1ad4:	26 e8       	ldi	r18, 0x86	; 134
    1ad6:	81 e0       	ldi	r24, 0x01	; 1
    1ad8:	91 50       	subi	r25, 0x01	; 1
    1ada:	20 40       	sbci	r18, 0x00	; 0
    1adc:	80 40       	sbci	r24, 0x00	; 0
    1ade:	e1 f7       	brne	.-8      	; 0x1ad8 <startUp+0xfa>
    1ae0:	00 c0       	rjmp	.+0      	; 0x1ae2 <startUp+0x104>
    1ae2:	00 00       	nop
    1ae4:	21 97       	sbiw	r28, 0x01	; 1
	//Handle
	UG_DrawLine(90,160,110,160,C_WHITE);
	UG_DrawLine(90,190,110,190,C_WHITE);
	UG_DrawLine(110,160,110,190,C_WHITE);
	//Beer
	for (int i = 0; i < 70; i++)
    1ae6:	c5 39       	cpi	r28, 0x95	; 149
    1ae8:	d1 05       	cpc	r29, r1
    1aea:	49 f7       	brne	.-46     	; 0x1abe <startUp+0xe0>
    1aec:	c6 e9       	ldi	r28, 0x96	; 150
    1aee:	d0 e0       	ldi	r29, 0x00	; 0
			UG_DrawLine(31,219-i,89,219-i,C_SANDY_BROWN);
			_delay_ms(500);
		}
	for (int i = 0; i < 10; i++)
		{
			UG_DrawLine(31,150-i,89,150-i,C_LAVENDER);
    1af0:	0e e3       	ldi	r16, 0x3E	; 62
    1af2:	17 ee       	ldi	r17, 0xE7	; 231
    1af4:	9e 01       	movw	r18, r28
    1af6:	49 e5       	ldi	r20, 0x59	; 89
    1af8:	50 e0       	ldi	r21, 0x00	; 0
    1afa:	be 01       	movw	r22, r28
    1afc:	8f e1       	ldi	r24, 0x1F	; 31
    1afe:	90 e0       	ldi	r25, 0x00	; 0
    1b00:	0e 94 0a 15 	call	0x2a14	; 0x2a14 <UG_DrawLine>
    1b04:	9f e9       	ldi	r25, 0x9F	; 159
    1b06:	26 e8       	ldi	r18, 0x86	; 134
    1b08:	81 e0       	ldi	r24, 0x01	; 1
    1b0a:	91 50       	subi	r25, 0x01	; 1
    1b0c:	20 40       	sbci	r18, 0x00	; 0
    1b0e:	80 40       	sbci	r24, 0x00	; 0
    1b10:	e1 f7       	brne	.-8      	; 0x1b0a <startUp+0x12c>
    1b12:	00 c0       	rjmp	.+0      	; 0x1b14 <startUp+0x136>
    1b14:	00 00       	nop
    1b16:	21 97       	sbiw	r28, 0x01	; 1
	for (int i = 0; i < 70; i++)
		{
			UG_DrawLine(31,219-i,89,219-i,C_SANDY_BROWN);
			_delay_ms(500);
		}
	for (int i = 0; i < 10; i++)
    1b18:	cc 38       	cpi	r28, 0x8C	; 140
    1b1a:	d1 05       	cpc	r29, r1
    1b1c:	49 f7       	brne	.-46     	; 0x1af0 <startUp+0x112>
			UG_DrawLine(31,150-i,89,150-i,C_LAVENDER);
			_delay_ms(500);
		}
	
	
}
    1b1e:	df 91       	pop	r29
    1b20:	cf 91       	pop	r28
    1b22:	1f 91       	pop	r17
    1b24:	0f 91       	pop	r16
    1b26:	08 95       	ret

00001b28 <mainScreenTime>:
void mainScreenTime()
{	
    1b28:	cf 92       	push	r12
    1b2a:	df 92       	push	r13
    1b2c:	ef 92       	push	r14
    1b2e:	ff 92       	push	r15
    1b30:	0f 93       	push	r16
    1b32:	1f 93       	push	r17
    1b34:	cf 93       	push	r28
    1b36:	df 93       	push	r29
    1b38:	cd b7       	in	r28, 0x3d	; 61
    1b3a:	de b7       	in	r29, 0x3e	; 62
    1b3c:	64 97       	sbiw	r28, 0x14	; 20
    1b3e:	0f b6       	in	r0, 0x3f	; 63
    1b40:	f8 94       	cli
    1b42:	de bf       	out	0x3e, r29	; 62
    1b44:	0f be       	out	0x3f, r0	; 63
    1b46:	cd bf       	out	0x3d, r28	; 61
	LCD_Init();	
    1b48:	0e 94 71 12 	call	0x24e2	; 0x24e2 <LCD_Init>
		
	UG_FontSelect(&RFONT_8X12);
    1b4c:	8a ea       	ldi	r24, 0xAA	; 170
    1b4e:	91 e0       	ldi	r25, 0x01	; 1
    1b50:	0e 94 9e 14 	call	0x293c	; 0x293c <UG_FontSelect>
	UG_SetForecolor(C_GREEN);
    1b54:	80 ee       	ldi	r24, 0xE0	; 224
    1b56:	97 e0       	ldi	r25, 0x07	; 7
    1b58:	0e 94 df 15 	call	0x2bbe	; 0x2bbe <UG_SetForecolor>
	UG_SetBackcolor(C_BLACK);
    1b5c:	80 e0       	ldi	r24, 0x00	; 0
    1b5e:	90 e0       	ldi	r25, 0x00	; 0
    1b60:	0e 94 e6 15 	call	0x2bcc	; 0x2bcc <UG_SetBackcolor>
	
	UG_PutString(30,50,"OK - Confirm");
    1b64:	40 e3       	ldi	r20, 0x30	; 48
    1b66:	51 e0       	ldi	r21, 0x01	; 1
    1b68:	62 e3       	ldi	r22, 0x32	; 50
    1b6a:	70 e0       	ldi	r23, 0x00	; 0
    1b6c:	8e e1       	ldi	r24, 0x1E	; 30
    1b6e:	90 e0       	ldi	r25, 0x00	; 0
    1b70:	0e 94 61 19 	call	0x32c2	; 0x32c2 <UG_PutString>
	UG_PutString(30,70,"A - Increase");
    1b74:	4d e3       	ldi	r20, 0x3D	; 61
    1b76:	51 e0       	ldi	r21, 0x01	; 1
    1b78:	66 e4       	ldi	r22, 0x46	; 70
    1b7a:	70 e0       	ldi	r23, 0x00	; 0
    1b7c:	8e e1       	ldi	r24, 0x1E	; 30
    1b7e:	90 e0       	ldi	r25, 0x00	; 0
    1b80:	0e 94 61 19 	call	0x32c2	; 0x32c2 <UG_PutString>
	UG_PutString(30,90,"B - Decrease");
    1b84:	4a e4       	ldi	r20, 0x4A	; 74
    1b86:	51 e0       	ldi	r21, 0x01	; 1
    1b88:	6a e5       	ldi	r22, 0x5A	; 90
    1b8a:	70 e0       	ldi	r23, 0x00	; 0
    1b8c:	8e e1       	ldi	r24, 0x1E	; 30
    1b8e:	90 e0       	ldi	r25, 0x00	; 0
    1b90:	0e 94 61 19 	call	0x32c2	; 0x32c2 <UG_PutString>
	UG_PutString(30,110,"ESC - Reset");
    1b94:	47 e5       	ldi	r20, 0x57	; 87
    1b96:	51 e0       	ldi	r21, 0x01	; 1
    1b98:	6e e6       	ldi	r22, 0x6E	; 110
    1b9a:	70 e0       	ldi	r23, 0x00	; 0
    1b9c:	8e e1       	ldi	r24, 0x1E	; 30
    1b9e:	90 e0       	ldi	r25, 0x00	; 0
    1ba0:	0e 94 61 19 	call	0x32c2	; 0x32c2 <UG_PutString>
	
	UG_DrawLine(30,140,130,140,C_WHITE);
    1ba4:	0f ef       	ldi	r16, 0xFF	; 255
    1ba6:	1f ef       	ldi	r17, 0xFF	; 255
    1ba8:	2c e8       	ldi	r18, 0x8C	; 140
    1baa:	30 e0       	ldi	r19, 0x00	; 0
    1bac:	42 e8       	ldi	r20, 0x82	; 130
    1bae:	50 e0       	ldi	r21, 0x00	; 0
    1bb0:	6c e8       	ldi	r22, 0x8C	; 140
    1bb2:	70 e0       	ldi	r23, 0x00	; 0
    1bb4:	8e e1       	ldi	r24, 0x1E	; 30
    1bb6:	90 e0       	ldi	r25, 0x00	; 0
    1bb8:	0e 94 0a 15 	call	0x2a14	; 0x2a14 <UG_DrawLine>
	UG_DrawLine(30,160,130,160,C_WHITE);
    1bbc:	20 ea       	ldi	r18, 0xA0	; 160
    1bbe:	30 e0       	ldi	r19, 0x00	; 0
    1bc0:	42 e8       	ldi	r20, 0x82	; 130
    1bc2:	50 e0       	ldi	r21, 0x00	; 0
    1bc4:	60 ea       	ldi	r22, 0xA0	; 160
    1bc6:	70 e0       	ldi	r23, 0x00	; 0
    1bc8:	8e e1       	ldi	r24, 0x1E	; 30
    1bca:	90 e0       	ldi	r25, 0x00	; 0
    1bcc:	0e 94 0a 15 	call	0x2a14	; 0x2a14 <UG_DrawLine>
	UG_DrawLine(30,140,30,160,C_WHITE);
    1bd0:	20 ea       	ldi	r18, 0xA0	; 160
    1bd2:	30 e0       	ldi	r19, 0x00	; 0
    1bd4:	4e e1       	ldi	r20, 0x1E	; 30
    1bd6:	50 e0       	ldi	r21, 0x00	; 0
    1bd8:	6c e8       	ldi	r22, 0x8C	; 140
    1bda:	70 e0       	ldi	r23, 0x00	; 0
    1bdc:	8e e1       	ldi	r24, 0x1E	; 30
    1bde:	90 e0       	ldi	r25, 0x00	; 0
    1be0:	0e 94 0a 15 	call	0x2a14	; 0x2a14 <UG_DrawLine>
	UG_DrawLine(130,140,130,160,C_WHITE);
    1be4:	20 ea       	ldi	r18, 0xA0	; 160
    1be6:	30 e0       	ldi	r19, 0x00	; 0
    1be8:	42 e8       	ldi	r20, 0x82	; 130
    1bea:	50 e0       	ldi	r21, 0x00	; 0
    1bec:	6c e8       	ldi	r22, 0x8C	; 140
    1bee:	70 e0       	ldi	r23, 0x00	; 0
    1bf0:	82 e8       	ldi	r24, 0x82	; 130
    1bf2:	90 e0       	ldi	r25, 0x00	; 0
    1bf4:	0e 94 0a 15 	call	0x2a14	; 0x2a14 <UG_DrawLine>

	UG_DrawLine(30,180,130,180,C_WHITE);
    1bf8:	24 eb       	ldi	r18, 0xB4	; 180
    1bfa:	30 e0       	ldi	r19, 0x00	; 0
    1bfc:	42 e8       	ldi	r20, 0x82	; 130
    1bfe:	50 e0       	ldi	r21, 0x00	; 0
    1c00:	64 eb       	ldi	r22, 0xB4	; 180
    1c02:	70 e0       	ldi	r23, 0x00	; 0
    1c04:	8e e1       	ldi	r24, 0x1E	; 30
    1c06:	90 e0       	ldi	r25, 0x00	; 0
    1c08:	0e 94 0a 15 	call	0x2a14	; 0x2a14 <UG_DrawLine>
	UG_DrawLine(30,200,130,200,C_WHITE);
    1c0c:	28 ec       	ldi	r18, 0xC8	; 200
    1c0e:	30 e0       	ldi	r19, 0x00	; 0
    1c10:	42 e8       	ldi	r20, 0x82	; 130
    1c12:	50 e0       	ldi	r21, 0x00	; 0
    1c14:	68 ec       	ldi	r22, 0xC8	; 200
    1c16:	70 e0       	ldi	r23, 0x00	; 0
    1c18:	8e e1       	ldi	r24, 0x1E	; 30
    1c1a:	90 e0       	ldi	r25, 0x00	; 0
    1c1c:	0e 94 0a 15 	call	0x2a14	; 0x2a14 <UG_DrawLine>
	UG_DrawLine(30,180,30,200,C_WHITE);
    1c20:	28 ec       	ldi	r18, 0xC8	; 200
    1c22:	30 e0       	ldi	r19, 0x00	; 0
    1c24:	4e e1       	ldi	r20, 0x1E	; 30
    1c26:	50 e0       	ldi	r21, 0x00	; 0
    1c28:	64 eb       	ldi	r22, 0xB4	; 180
    1c2a:	70 e0       	ldi	r23, 0x00	; 0
    1c2c:	8e e1       	ldi	r24, 0x1E	; 30
    1c2e:	90 e0       	ldi	r25, 0x00	; 0
    1c30:	0e 94 0a 15 	call	0x2a14	; 0x2a14 <UG_DrawLine>
	UG_DrawLine(130,180,130,200,C_WHITE);	
    1c34:	28 ec       	ldi	r18, 0xC8	; 200
    1c36:	30 e0       	ldi	r19, 0x00	; 0
    1c38:	42 e8       	ldi	r20, 0x82	; 130
    1c3a:	50 e0       	ldi	r21, 0x00	; 0
    1c3c:	64 eb       	ldi	r22, 0xB4	; 180
    1c3e:	70 e0       	ldi	r23, 0x00	; 0
    1c40:	82 e8       	ldi	r24, 0x82	; 130
    1c42:	90 e0       	ldi	r25, 0x00	; 0
    1c44:	0e 94 0a 15 	call	0x2a14	; 0x2a14 <UG_DrawLine>
	
	char text[20];
	
	sprintf(text,"Temp: %d",temp);
    1c48:	80 91 c3 01 	lds	r24, 0x01C3	; 0x8001c3 <temp+0x1>
    1c4c:	8f 93       	push	r24
    1c4e:	80 91 c2 01 	lds	r24, 0x01C2	; 0x8001c2 <temp>
    1c52:	8f 93       	push	r24
    1c54:	83 e6       	ldi	r24, 0x63	; 99
    1c56:	91 e0       	ldi	r25, 0x01	; 1
    1c58:	9f 93       	push	r25
    1c5a:	8f 93       	push	r24
    1c5c:	8e 01       	movw	r16, r28
    1c5e:	0f 5f       	subi	r16, 0xFF	; 255
    1c60:	1f 4f       	sbci	r17, 0xFF	; 255
    1c62:	1f 93       	push	r17
    1c64:	0f 93       	push	r16
    1c66:	0e 94 de 1a 	call	0x35bc	; 0x35bc <sprintf>
	UG_SetForecolor(C_WHITE);
    1c6a:	8f ef       	ldi	r24, 0xFF	; 255
    1c6c:	9f ef       	ldi	r25, 0xFF	; 255
    1c6e:	0e 94 df 15 	call	0x2bbe	; 0x2bbe <UG_SetForecolor>
	UG_PutString(35,185,text);
    1c72:	a8 01       	movw	r20, r16
    1c74:	69 eb       	ldi	r22, 0xB9	; 185
    1c76:	70 e0       	ldi	r23, 0x00	; 0
    1c78:	83 e2       	ldi	r24, 0x23	; 35
    1c7a:	90 e0       	ldi	r25, 0x00	; 0
    1c7c:	0e 94 61 19 	call	0x32c2	; 0x32c2 <UG_PutString>
    1c80:	0f 90       	pop	r0
    1c82:	0f 90       	pop	r0
    1c84:	0f 90       	pop	r0
    1c86:	0f 90       	pop	r0
    1c88:	0f 90       	pop	r0
    1c8a:	0f 90       	pop	r0
	
	while(1)
	{			
		sprintf(text,"Days: %d",days);
    1c8c:	0c e6       	ldi	r16, 0x6C	; 108
    1c8e:	11 e0       	ldi	r17, 0x01	; 1
    1c90:	ce 01       	movw	r24, r28
    1c92:	01 96       	adiw	r24, 0x01	; 1
    1c94:	7c 01       	movw	r14, r24
    1c96:	c8 2e       	mov	r12, r24
    1c98:	df 2c       	mov	r13, r15
    1c9a:	80 91 c1 01 	lds	r24, 0x01C1	; 0x8001c1 <days+0x1>
    1c9e:	8f 93       	push	r24
    1ca0:	80 91 c0 01 	lds	r24, 0x01C0	; 0x8001c0 <days>
    1ca4:	8f 93       	push	r24
    1ca6:	1f 93       	push	r17
    1ca8:	0f 93       	push	r16
    1caa:	ff 92       	push	r15
    1cac:	ef 92       	push	r14
    1cae:	0e 94 de 1a 	call	0x35bc	; 0x35bc <sprintf>
		UG_SetForecolor(C_WHITE);
    1cb2:	8f ef       	ldi	r24, 0xFF	; 255
    1cb4:	9f ef       	ldi	r25, 0xFF	; 255
    1cb6:	0e 94 df 15 	call	0x2bbe	; 0x2bbe <UG_SetForecolor>
		UG_PutString(35,145,text);
    1cba:	4c 2d       	mov	r20, r12
    1cbc:	5d 2d       	mov	r21, r13
    1cbe:	61 e9       	ldi	r22, 0x91	; 145
    1cc0:	70 e0       	ldi	r23, 0x00	; 0
    1cc2:	83 e2       	ldi	r24, 0x23	; 35
    1cc4:	90 e0       	ldi	r25, 0x00	; 0
    1cc6:	0e 94 61 19 	call	0x32c2	; 0x32c2 <UG_PutString>
		
		KBD_Read();
    1cca:	0e 94 88 13 	call	0x2710	; 0x2710 <KBD_Read>
		switch(KBD_GetKey())
    1cce:	0e 94 bb 13 	call	0x2776	; 0x2776 <KBD_GetKey>
    1cd2:	0f 90       	pop	r0
    1cd4:	0f 90       	pop	r0
    1cd6:	0f 90       	pop	r0
    1cd8:	0f 90       	pop	r0
    1cda:	0f 90       	pop	r0
    1cdc:	0f 90       	pop	r0
    1cde:	83 30       	cpi	r24, 0x03	; 3
    1ce0:	89 f1       	breq	.+98     	; 0x1d44 <mainScreenTime+0x21c>
    1ce2:	18 f4       	brcc	.+6      	; 0x1cea <mainScreenTime+0x1c2>
    1ce4:	82 30       	cpi	r24, 0x02	; 2
    1ce6:	31 f0       	breq	.+12     	; 0x1cf4 <mainScreenTime+0x1cc>
    1ce8:	d8 cf       	rjmp	.-80     	; 0x1c9a <mainScreenTime+0x172>
    1cea:	84 30       	cpi	r24, 0x04	; 4
    1cec:	71 f0       	breq	.+28     	; 0x1d0a <mainScreenTime+0x1e2>
    1cee:	85 30       	cpi	r24, 0x05	; 5
    1cf0:	b1 f0       	breq	.+44     	; 0x1d1e <mainScreenTime+0x1f6>
    1cf2:	d3 cf       	rjmp	.-90     	; 0x1c9a <mainScreenTime+0x172>
		{
			case 2:
				days = 0;
    1cf4:	10 92 c1 01 	sts	0x01C1, r1	; 0x8001c1 <days+0x1>
    1cf8:	10 92 c0 01 	sts	0x01C0, r1	; 0x8001c0 <days>
				temp = 0;
    1cfc:	10 92 c3 01 	sts	0x01C3, r1	; 0x8001c3 <temp+0x1>
    1d00:	10 92 c2 01 	sts	0x01C2, r1	; 0x8001c2 <temp>
				mainScreenTime();
    1d04:	0e 94 94 0d 	call	0x1b28	; 0x1b28 <mainScreenTime>
			break;
    1d08:	c8 cf       	rjmp	.-112    	; 0x1c9a <mainScreenTime+0x172>
			case 3: 
				return;
			break;
			
			case 4:
				days++;
    1d0a:	80 91 c0 01 	lds	r24, 0x01C0	; 0x8001c0 <days>
    1d0e:	90 91 c1 01 	lds	r25, 0x01C1	; 0x8001c1 <days+0x1>
    1d12:	01 96       	adiw	r24, 0x01	; 1
    1d14:	90 93 c1 01 	sts	0x01C1, r25	; 0x8001c1 <days+0x1>
    1d18:	80 93 c0 01 	sts	0x01C0, r24	; 0x8001c0 <days>
			break;
    1d1c:	be cf       	rjmp	.-132    	; 0x1c9a <mainScreenTime+0x172>
			
			case 5:
				if(days-1 < 0)
    1d1e:	80 91 c0 01 	lds	r24, 0x01C0	; 0x8001c0 <days>
    1d22:	90 91 c1 01 	lds	r25, 0x01C1	; 0x8001c1 <days+0x1>
    1d26:	9c 01       	movw	r18, r24
    1d28:	21 50       	subi	r18, 0x01	; 1
    1d2a:	31 09       	sbc	r19, r1
    1d2c:	2a f4       	brpl	.+10     	; 0x1d38 <mainScreenTime+0x210>
					days = 0;
    1d2e:	10 92 c1 01 	sts	0x01C1, r1	; 0x8001c1 <days+0x1>
    1d32:	10 92 c0 01 	sts	0x01C0, r1	; 0x8001c0 <days>
    1d36:	b1 cf       	rjmp	.-158    	; 0x1c9a <mainScreenTime+0x172>
				else
					days--;
    1d38:	01 97       	sbiw	r24, 0x01	; 1
    1d3a:	90 93 c1 01 	sts	0x01C1, r25	; 0x8001c1 <days+0x1>
    1d3e:	80 93 c0 01 	sts	0x01C0, r24	; 0x8001c0 <days>
    1d42:	ab cf       	rjmp	.-170    	; 0x1c9a <mainScreenTime+0x172>
			break;
		}
	}
}
    1d44:	64 96       	adiw	r28, 0x14	; 20
    1d46:	0f b6       	in	r0, 0x3f	; 63
    1d48:	f8 94       	cli
    1d4a:	de bf       	out	0x3e, r29	; 62
    1d4c:	0f be       	out	0x3f, r0	; 63
    1d4e:	cd bf       	out	0x3d, r28	; 61
    1d50:	df 91       	pop	r29
    1d52:	cf 91       	pop	r28
    1d54:	1f 91       	pop	r17
    1d56:	0f 91       	pop	r16
    1d58:	ff 90       	pop	r15
    1d5a:	ef 90       	pop	r14
    1d5c:	df 90       	pop	r13
    1d5e:	cf 90       	pop	r12
    1d60:	08 95       	ret

00001d62 <mainScreenTemp>:

void mainScreenTemp()
{	
    1d62:	cf 92       	push	r12
    1d64:	df 92       	push	r13
    1d66:	ef 92       	push	r14
    1d68:	ff 92       	push	r15
    1d6a:	0f 93       	push	r16
    1d6c:	1f 93       	push	r17
    1d6e:	cf 93       	push	r28
    1d70:	df 93       	push	r29
    1d72:	cd b7       	in	r28, 0x3d	; 61
    1d74:	de b7       	in	r29, 0x3e	; 62
    1d76:	64 97       	sbiw	r28, 0x14	; 20
    1d78:	0f b6       	in	r0, 0x3f	; 63
    1d7a:	f8 94       	cli
    1d7c:	de bf       	out	0x3e, r29	; 62
    1d7e:	0f be       	out	0x3f, r0	; 63
    1d80:	cd bf       	out	0x3d, r28	; 61
	LCD_Init();
    1d82:	0e 94 71 12 	call	0x24e2	; 0x24e2 <LCD_Init>
	
	UG_FontSelect(&RFONT_8X12);
    1d86:	8a ea       	ldi	r24, 0xAA	; 170
    1d88:	91 e0       	ldi	r25, 0x01	; 1
    1d8a:	0e 94 9e 14 	call	0x293c	; 0x293c <UG_FontSelect>
	UG_SetForecolor(C_GREEN);
    1d8e:	80 ee       	ldi	r24, 0xE0	; 224
    1d90:	97 e0       	ldi	r25, 0x07	; 7
    1d92:	0e 94 df 15 	call	0x2bbe	; 0x2bbe <UG_SetForecolor>
	UG_SetBackcolor(C_BLACK);
    1d96:	80 e0       	ldi	r24, 0x00	; 0
    1d98:	90 e0       	ldi	r25, 0x00	; 0
    1d9a:	0e 94 e6 15 	call	0x2bcc	; 0x2bcc <UG_SetBackcolor>
	
	UG_PutString(30,50,"OK - Confirm");
    1d9e:	40 e3       	ldi	r20, 0x30	; 48
    1da0:	51 e0       	ldi	r21, 0x01	; 1
    1da2:	62 e3       	ldi	r22, 0x32	; 50
    1da4:	70 e0       	ldi	r23, 0x00	; 0
    1da6:	8e e1       	ldi	r24, 0x1E	; 30
    1da8:	90 e0       	ldi	r25, 0x00	; 0
    1daa:	0e 94 61 19 	call	0x32c2	; 0x32c2 <UG_PutString>
	UG_PutString(30,70,"A - Increase");
    1dae:	4d e3       	ldi	r20, 0x3D	; 61
    1db0:	51 e0       	ldi	r21, 0x01	; 1
    1db2:	66 e4       	ldi	r22, 0x46	; 70
    1db4:	70 e0       	ldi	r23, 0x00	; 0
    1db6:	8e e1       	ldi	r24, 0x1E	; 30
    1db8:	90 e0       	ldi	r25, 0x00	; 0
    1dba:	0e 94 61 19 	call	0x32c2	; 0x32c2 <UG_PutString>
	UG_PutString(30,90,"B - Decrease");
    1dbe:	4a e4       	ldi	r20, 0x4A	; 74
    1dc0:	51 e0       	ldi	r21, 0x01	; 1
    1dc2:	6a e5       	ldi	r22, 0x5A	; 90
    1dc4:	70 e0       	ldi	r23, 0x00	; 0
    1dc6:	8e e1       	ldi	r24, 0x1E	; 30
    1dc8:	90 e0       	ldi	r25, 0x00	; 0
    1dca:	0e 94 61 19 	call	0x32c2	; 0x32c2 <UG_PutString>
	UG_PutString(30,110,"ESC - Reset");
    1dce:	47 e5       	ldi	r20, 0x57	; 87
    1dd0:	51 e0       	ldi	r21, 0x01	; 1
    1dd2:	6e e6       	ldi	r22, 0x6E	; 110
    1dd4:	70 e0       	ldi	r23, 0x00	; 0
    1dd6:	8e e1       	ldi	r24, 0x1E	; 30
    1dd8:	90 e0       	ldi	r25, 0x00	; 0
    1dda:	0e 94 61 19 	call	0x32c2	; 0x32c2 <UG_PutString>
	
	UG_DrawLine(30,180,130,180,C_WHITE);
    1dde:	0f ef       	ldi	r16, 0xFF	; 255
    1de0:	1f ef       	ldi	r17, 0xFF	; 255
    1de2:	24 eb       	ldi	r18, 0xB4	; 180
    1de4:	30 e0       	ldi	r19, 0x00	; 0
    1de6:	42 e8       	ldi	r20, 0x82	; 130
    1de8:	50 e0       	ldi	r21, 0x00	; 0
    1dea:	64 eb       	ldi	r22, 0xB4	; 180
    1dec:	70 e0       	ldi	r23, 0x00	; 0
    1dee:	8e e1       	ldi	r24, 0x1E	; 30
    1df0:	90 e0       	ldi	r25, 0x00	; 0
    1df2:	0e 94 0a 15 	call	0x2a14	; 0x2a14 <UG_DrawLine>
	UG_DrawLine(30,200,130,200,C_WHITE);
    1df6:	28 ec       	ldi	r18, 0xC8	; 200
    1df8:	30 e0       	ldi	r19, 0x00	; 0
    1dfa:	42 e8       	ldi	r20, 0x82	; 130
    1dfc:	50 e0       	ldi	r21, 0x00	; 0
    1dfe:	68 ec       	ldi	r22, 0xC8	; 200
    1e00:	70 e0       	ldi	r23, 0x00	; 0
    1e02:	8e e1       	ldi	r24, 0x1E	; 30
    1e04:	90 e0       	ldi	r25, 0x00	; 0
    1e06:	0e 94 0a 15 	call	0x2a14	; 0x2a14 <UG_DrawLine>
	UG_DrawLine(30,180,30,200,C_WHITE);
    1e0a:	28 ec       	ldi	r18, 0xC8	; 200
    1e0c:	30 e0       	ldi	r19, 0x00	; 0
    1e0e:	4e e1       	ldi	r20, 0x1E	; 30
    1e10:	50 e0       	ldi	r21, 0x00	; 0
    1e12:	64 eb       	ldi	r22, 0xB4	; 180
    1e14:	70 e0       	ldi	r23, 0x00	; 0
    1e16:	8e e1       	ldi	r24, 0x1E	; 30
    1e18:	90 e0       	ldi	r25, 0x00	; 0
    1e1a:	0e 94 0a 15 	call	0x2a14	; 0x2a14 <UG_DrawLine>
	UG_DrawLine(130,180,130,200,C_WHITE);
    1e1e:	28 ec       	ldi	r18, 0xC8	; 200
    1e20:	30 e0       	ldi	r19, 0x00	; 0
    1e22:	42 e8       	ldi	r20, 0x82	; 130
    1e24:	50 e0       	ldi	r21, 0x00	; 0
    1e26:	64 eb       	ldi	r22, 0xB4	; 180
    1e28:	70 e0       	ldi	r23, 0x00	; 0
    1e2a:	82 e8       	ldi	r24, 0x82	; 130
    1e2c:	90 e0       	ldi	r25, 0x00	; 0
    1e2e:	0e 94 0a 15 	call	0x2a14	; 0x2a14 <UG_DrawLine>
	
	UG_DrawLine(30,140,130,140,C_WHITE);
    1e32:	2c e8       	ldi	r18, 0x8C	; 140
    1e34:	30 e0       	ldi	r19, 0x00	; 0
    1e36:	42 e8       	ldi	r20, 0x82	; 130
    1e38:	50 e0       	ldi	r21, 0x00	; 0
    1e3a:	6c e8       	ldi	r22, 0x8C	; 140
    1e3c:	70 e0       	ldi	r23, 0x00	; 0
    1e3e:	8e e1       	ldi	r24, 0x1E	; 30
    1e40:	90 e0       	ldi	r25, 0x00	; 0
    1e42:	0e 94 0a 15 	call	0x2a14	; 0x2a14 <UG_DrawLine>
	UG_DrawLine(30,160,130,160,C_WHITE);
    1e46:	20 ea       	ldi	r18, 0xA0	; 160
    1e48:	30 e0       	ldi	r19, 0x00	; 0
    1e4a:	42 e8       	ldi	r20, 0x82	; 130
    1e4c:	50 e0       	ldi	r21, 0x00	; 0
    1e4e:	60 ea       	ldi	r22, 0xA0	; 160
    1e50:	70 e0       	ldi	r23, 0x00	; 0
    1e52:	8e e1       	ldi	r24, 0x1E	; 30
    1e54:	90 e0       	ldi	r25, 0x00	; 0
    1e56:	0e 94 0a 15 	call	0x2a14	; 0x2a14 <UG_DrawLine>
	UG_DrawLine(30,140,30,160,C_WHITE);
    1e5a:	20 ea       	ldi	r18, 0xA0	; 160
    1e5c:	30 e0       	ldi	r19, 0x00	; 0
    1e5e:	4e e1       	ldi	r20, 0x1E	; 30
    1e60:	50 e0       	ldi	r21, 0x00	; 0
    1e62:	6c e8       	ldi	r22, 0x8C	; 140
    1e64:	70 e0       	ldi	r23, 0x00	; 0
    1e66:	8e e1       	ldi	r24, 0x1E	; 30
    1e68:	90 e0       	ldi	r25, 0x00	; 0
    1e6a:	0e 94 0a 15 	call	0x2a14	; 0x2a14 <UG_DrawLine>
	UG_DrawLine(130,140,130,160,C_WHITE);
    1e6e:	20 ea       	ldi	r18, 0xA0	; 160
    1e70:	30 e0       	ldi	r19, 0x00	; 0
    1e72:	42 e8       	ldi	r20, 0x82	; 130
    1e74:	50 e0       	ldi	r21, 0x00	; 0
    1e76:	6c e8       	ldi	r22, 0x8C	; 140
    1e78:	70 e0       	ldi	r23, 0x00	; 0
    1e7a:	82 e8       	ldi	r24, 0x82	; 130
    1e7c:	90 e0       	ldi	r25, 0x00	; 0
    1e7e:	0e 94 0a 15 	call	0x2a14	; 0x2a14 <UG_DrawLine>
	
	char text[20];	
	
		sprintf(text,"Days: %d",days);
    1e82:	80 91 c1 01 	lds	r24, 0x01C1	; 0x8001c1 <days+0x1>
    1e86:	8f 93       	push	r24
    1e88:	80 91 c0 01 	lds	r24, 0x01C0	; 0x8001c0 <days>
    1e8c:	8f 93       	push	r24
    1e8e:	8c e6       	ldi	r24, 0x6C	; 108
    1e90:	91 e0       	ldi	r25, 0x01	; 1
    1e92:	9f 93       	push	r25
    1e94:	8f 93       	push	r24
    1e96:	8e 01       	movw	r16, r28
    1e98:	0f 5f       	subi	r16, 0xFF	; 255
    1e9a:	1f 4f       	sbci	r17, 0xFF	; 255
    1e9c:	1f 93       	push	r17
    1e9e:	0f 93       	push	r16
    1ea0:	0e 94 de 1a 	call	0x35bc	; 0x35bc <sprintf>
		UG_SetForecolor(C_WHITE);
    1ea4:	8f ef       	ldi	r24, 0xFF	; 255
    1ea6:	9f ef       	ldi	r25, 0xFF	; 255
    1ea8:	0e 94 df 15 	call	0x2bbe	; 0x2bbe <UG_SetForecolor>
		UG_PutString(35,145,text);
    1eac:	a8 01       	movw	r20, r16
    1eae:	61 e9       	ldi	r22, 0x91	; 145
    1eb0:	70 e0       	ldi	r23, 0x00	; 0
    1eb2:	83 e2       	ldi	r24, 0x23	; 35
    1eb4:	90 e0       	ldi	r25, 0x00	; 0
    1eb6:	0e 94 61 19 	call	0x32c2	; 0x32c2 <UG_PutString>
    1eba:	0f 90       	pop	r0
    1ebc:	0f 90       	pop	r0
    1ebe:	0f 90       	pop	r0
    1ec0:	0f 90       	pop	r0
    1ec2:	0f 90       	pop	r0
    1ec4:	0f 90       	pop	r0
		
	
	while(1)
	{
		sprintf(text,"Temp: %d",temp);
    1ec6:	03 e6       	ldi	r16, 0x63	; 99
    1ec8:	11 e0       	ldi	r17, 0x01	; 1
    1eca:	ce 01       	movw	r24, r28
    1ecc:	01 96       	adiw	r24, 0x01	; 1
    1ece:	7c 01       	movw	r14, r24
    1ed0:	c8 2e       	mov	r12, r24
    1ed2:	df 2c       	mov	r13, r15
    1ed4:	80 91 c3 01 	lds	r24, 0x01C3	; 0x8001c3 <temp+0x1>
    1ed8:	8f 93       	push	r24
    1eda:	80 91 c2 01 	lds	r24, 0x01C2	; 0x8001c2 <temp>
    1ede:	8f 93       	push	r24
    1ee0:	1f 93       	push	r17
    1ee2:	0f 93       	push	r16
    1ee4:	ff 92       	push	r15
    1ee6:	ef 92       	push	r14
    1ee8:	0e 94 de 1a 	call	0x35bc	; 0x35bc <sprintf>
		UG_SetForecolor(C_WHITE);
    1eec:	8f ef       	ldi	r24, 0xFF	; 255
    1eee:	9f ef       	ldi	r25, 0xFF	; 255
    1ef0:	0e 94 df 15 	call	0x2bbe	; 0x2bbe <UG_SetForecolor>
		UG_PutString(35,185,text);
    1ef4:	4c 2d       	mov	r20, r12
    1ef6:	5d 2d       	mov	r21, r13
    1ef8:	69 eb       	ldi	r22, 0xB9	; 185
    1efa:	70 e0       	ldi	r23, 0x00	; 0
    1efc:	83 e2       	ldi	r24, 0x23	; 35
    1efe:	90 e0       	ldi	r25, 0x00	; 0
    1f00:	0e 94 61 19 	call	0x32c2	; 0x32c2 <UG_PutString>
		
		KBD_Read();
    1f04:	0e 94 88 13 	call	0x2710	; 0x2710 <KBD_Read>
		switch(KBD_GetKey())
    1f08:	0e 94 bb 13 	call	0x2776	; 0x2776 <KBD_GetKey>
    1f0c:	0f 90       	pop	r0
    1f0e:	0f 90       	pop	r0
    1f10:	0f 90       	pop	r0
    1f12:	0f 90       	pop	r0
    1f14:	0f 90       	pop	r0
    1f16:	0f 90       	pop	r0
    1f18:	83 30       	cpi	r24, 0x03	; 3
    1f1a:	a1 f0       	breq	.+40     	; 0x1f44 <mainScreenTemp+0x1e2>
    1f1c:	18 f4       	brcc	.+6      	; 0x1f24 <mainScreenTemp+0x1c2>
    1f1e:	82 30       	cpi	r24, 0x02	; 2
    1f20:	31 f0       	breq	.+12     	; 0x1f2e <mainScreenTemp+0x1cc>
    1f22:	d8 cf       	rjmp	.-80     	; 0x1ed4 <mainScreenTemp+0x172>
    1f24:	84 30       	cpi	r24, 0x04	; 4
    1f26:	89 f0       	breq	.+34     	; 0x1f4a <mainScreenTemp+0x1e8>
    1f28:	85 30       	cpi	r24, 0x05	; 5
    1f2a:	c9 f0       	breq	.+50     	; 0x1f5e <mainScreenTemp+0x1fc>
    1f2c:	d3 cf       	rjmp	.-90     	; 0x1ed4 <mainScreenTemp+0x172>
		{
			case 2:
				days = 0;
    1f2e:	10 92 c1 01 	sts	0x01C1, r1	; 0x8001c1 <days+0x1>
    1f32:	10 92 c0 01 	sts	0x01C0, r1	; 0x8001c0 <days>
				temp = 0;
    1f36:	10 92 c3 01 	sts	0x01C3, r1	; 0x8001c3 <temp+0x1>
    1f3a:	10 92 c2 01 	sts	0x01C2, r1	; 0x8001c2 <temp>
				mainScreenTime();
    1f3e:	0e 94 94 0d 	call	0x1b28	; 0x1b28 <mainScreenTime>
			break;
    1f42:	c8 cf       	rjmp	.-112    	; 0x1ed4 <mainScreenTemp+0x172>
			
			case 3:
				convertToRealTime();
    1f44:	0e 94 3b 14 	call	0x2876	; 0x2876 <convertToRealTime>
				return;
    1f48:	1d c0       	rjmp	.+58     	; 0x1f84 <mainScreenTemp+0x222>
				
			break;
			
			case 4:
			temp++;
    1f4a:	80 91 c2 01 	lds	r24, 0x01C2	; 0x8001c2 <temp>
    1f4e:	90 91 c3 01 	lds	r25, 0x01C3	; 0x8001c3 <temp+0x1>
    1f52:	01 96       	adiw	r24, 0x01	; 1
    1f54:	90 93 c3 01 	sts	0x01C3, r25	; 0x8001c3 <temp+0x1>
    1f58:	80 93 c2 01 	sts	0x01C2, r24	; 0x8001c2 <temp>
			break;
    1f5c:	bb cf       	rjmp	.-138    	; 0x1ed4 <mainScreenTemp+0x172>
			
			case 5:
			if(temp-1 < 0)
    1f5e:	80 91 c2 01 	lds	r24, 0x01C2	; 0x8001c2 <temp>
    1f62:	90 91 c3 01 	lds	r25, 0x01C3	; 0x8001c3 <temp+0x1>
    1f66:	9c 01       	movw	r18, r24
    1f68:	21 50       	subi	r18, 0x01	; 1
    1f6a:	31 09       	sbc	r19, r1
    1f6c:	2a f4       	brpl	.+10     	; 0x1f78 <mainScreenTemp+0x216>
			temp = 0;
    1f6e:	10 92 c3 01 	sts	0x01C3, r1	; 0x8001c3 <temp+0x1>
    1f72:	10 92 c2 01 	sts	0x01C2, r1	; 0x8001c2 <temp>
    1f76:	ae cf       	rjmp	.-164    	; 0x1ed4 <mainScreenTemp+0x172>
			else
			temp--;
    1f78:	01 97       	sbiw	r24, 0x01	; 1
    1f7a:	90 93 c3 01 	sts	0x01C3, r25	; 0x8001c3 <temp+0x1>
    1f7e:	80 93 c2 01 	sts	0x01C2, r24	; 0x8001c2 <temp>
    1f82:	a8 cf       	rjmp	.-176    	; 0x1ed4 <mainScreenTemp+0x172>
			break;
		}
	}
}
    1f84:	64 96       	adiw	r28, 0x14	; 20
    1f86:	0f b6       	in	r0, 0x3f	; 63
    1f88:	f8 94       	cli
    1f8a:	de bf       	out	0x3e, r29	; 62
    1f8c:	0f be       	out	0x3f, r0	; 63
    1f8e:	cd bf       	out	0x3d, r28	; 61
    1f90:	df 91       	pop	r29
    1f92:	cf 91       	pop	r28
    1f94:	1f 91       	pop	r17
    1f96:	0f 91       	pop	r16
    1f98:	ff 90       	pop	r15
    1f9a:	ef 90       	pop	r14
    1f9c:	df 90       	pop	r13
    1f9e:	cf 90       	pop	r12
    1fa0:	08 95       	ret

00001fa2 <fermentationScreen>:

void fermentationScreen()
{	
    1fa2:	8f 92       	push	r8
    1fa4:	9f 92       	push	r9
    1fa6:	af 92       	push	r10
    1fa8:	bf 92       	push	r11
    1faa:	cf 92       	push	r12
    1fac:	df 92       	push	r13
    1fae:	ef 92       	push	r14
    1fb0:	ff 92       	push	r15
    1fb2:	0f 93       	push	r16
    1fb4:	1f 93       	push	r17
    1fb6:	cf 93       	push	r28
    1fb8:	df 93       	push	r29
    1fba:	cd b7       	in	r28, 0x3d	; 61
    1fbc:	de b7       	in	r29, 0x3e	; 62
    1fbe:	64 97       	sbiw	r28, 0x14	; 20
    1fc0:	0f b6       	in	r0, 0x3f	; 63
    1fc2:	f8 94       	cli
    1fc4:	de bf       	out	0x3e, r29	; 62
    1fc6:	0f be       	out	0x3f, r0	; 63
    1fc8:	cd bf       	out	0x3d, r28	; 61
	char text[20];
	
	long tmp = globalTime;		
    1fca:	60 91 c4 01 	lds	r22, 0x01C4	; 0x8001c4 <globalTime>
    1fce:	70 91 c5 01 	lds	r23, 0x01C5	; 0x8001c5 <globalTime+0x1>
    1fd2:	80 91 c6 01 	lds	r24, 0x01C6	; 0x8001c6 <globalTime+0x2>
    1fd6:	90 91 c7 01 	lds	r25, 0x01C7	; 0x8001c7 <globalTime+0x3>
	
	sprintf(text,"Days: %d",(tmp/(86400))); //Days
    1fda:	20 e8       	ldi	r18, 0x80	; 128
    1fdc:	31 e5       	ldi	r19, 0x51	; 81
    1fde:	41 e0       	ldi	r20, 0x01	; 1
    1fe0:	50 e0       	ldi	r21, 0x00	; 0
    1fe2:	0e 94 97 1a 	call	0x352e	; 0x352e <__divmodsi4>
    1fe6:	4b 01       	movw	r8, r22
    1fe8:	5c 01       	movw	r10, r24
    1fea:	5f 93       	push	r21
    1fec:	4f 93       	push	r20
    1fee:	3f 93       	push	r19
    1ff0:	2f 93       	push	r18
    1ff2:	8c e6       	ldi	r24, 0x6C	; 108
    1ff4:	91 e0       	ldi	r25, 0x01	; 1
    1ff6:	9f 93       	push	r25
    1ff8:	8f 93       	push	r24
    1ffa:	8e 01       	movw	r16, r28
    1ffc:	0f 5f       	subi	r16, 0xFF	; 255
    1ffe:	1f 4f       	sbci	r17, 0xFF	; 255
    2000:	1f 93       	push	r17
    2002:	0f 93       	push	r16
    2004:	0e 94 de 1a 	call	0x35bc	; 0x35bc <sprintf>
	UG_SetForecolor(C_WHITE);
    2008:	8f ef       	ldi	r24, 0xFF	; 255
    200a:	9f ef       	ldi	r25, 0xFF	; 255
    200c:	0e 94 df 15 	call	0x2bbe	; 0x2bbe <UG_SetForecolor>
	UG_PutString(35,145,text);	
    2010:	a8 01       	movw	r20, r16
    2012:	61 e9       	ldi	r22, 0x91	; 145
    2014:	70 e0       	ldi	r23, 0x00	; 0
    2016:	83 e2       	ldi	r24, 0x23	; 35
    2018:	90 e0       	ldi	r25, 0x00	; 0
    201a:	0e 94 61 19 	call	0x32c2	; 0x32c2 <UG_PutString>
	
	tmp = tmp % (86400); //Hours
	memset(text, 0, sizeof text);
    201e:	0f 2e       	mov	r0, r31
    2020:	f4 e1       	ldi	r31, 0x14	; 20
    2022:	ff 2e       	mov	r15, r31
    2024:	f0 2d       	mov	r31, r0
    2026:	f8 01       	movw	r30, r16
    2028:	8f 2d       	mov	r24, r15
    202a:	11 92       	st	Z+, r1
    202c:	8a 95       	dec	r24
    202e:	e9 f7       	brne	.-6      	; 0x202a <fermentationScreen+0x88>
	
	sprintf(text,"Hours: %d",(tmp/ 3600));
    2030:	c5 01       	movw	r24, r10
    2032:	b4 01       	movw	r22, r8
    2034:	20 e1       	ldi	r18, 0x10	; 16
    2036:	3e e0       	ldi	r19, 0x0E	; 14
    2038:	40 e0       	ldi	r20, 0x00	; 0
    203a:	50 e0       	ldi	r21, 0x00	; 0
    203c:	0e 94 97 1a 	call	0x352e	; 0x352e <__divmodsi4>
    2040:	4b 01       	movw	r8, r22
    2042:	5c 01       	movw	r10, r24
    2044:	5f 93       	push	r21
    2046:	4f 93       	push	r20
    2048:	3f 93       	push	r19
    204a:	2f 93       	push	r18
    204c:	85 e7       	ldi	r24, 0x75	; 117
    204e:	91 e0       	ldi	r25, 0x01	; 1
    2050:	9f 93       	push	r25
    2052:	8f 93       	push	r24
    2054:	1f 93       	push	r17
    2056:	0f 93       	push	r16
    2058:	0e 94 de 1a 	call	0x35bc	; 0x35bc <sprintf>
	UG_SetForecolor(C_WHITE);
    205c:	8f ef       	ldi	r24, 0xFF	; 255
    205e:	9f ef       	ldi	r25, 0xFF	; 255
    2060:	0e 94 df 15 	call	0x2bbe	; 0x2bbe <UG_SetForecolor>
	UG_PutString(60,165,text);	
    2064:	a8 01       	movw	r20, r16
    2066:	65 ea       	ldi	r22, 0xA5	; 165
    2068:	70 e0       	ldi	r23, 0x00	; 0
    206a:	8c e3       	ldi	r24, 0x3C	; 60
    206c:	90 e0       	ldi	r25, 0x00	; 0
    206e:	0e 94 61 19 	call	0x32c2	; 0x32c2 <UG_PutString>
	
	tmp = tmp % 3600; //Mins	
		
	memset(text, 0, sizeof text);
    2072:	f8 01       	movw	r30, r16
    2074:	8f 2d       	mov	r24, r15
    2076:	11 92       	st	Z+, r1
    2078:	8a 95       	dec	r24
    207a:	e9 f7       	brne	.-6      	; 0x2076 <fermentationScreen+0xd4>
	
	sprintf(text,"Mins: %d",(tmp/ 60));
    207c:	c5 01       	movw	r24, r10
    207e:	b4 01       	movw	r22, r8
    2080:	2c e3       	ldi	r18, 0x3C	; 60
    2082:	30 e0       	ldi	r19, 0x00	; 0
    2084:	40 e0       	ldi	r20, 0x00	; 0
    2086:	50 e0       	ldi	r21, 0x00	; 0
    2088:	0e 94 97 1a 	call	0x352e	; 0x352e <__divmodsi4>
    208c:	e6 2e       	mov	r14, r22
    208e:	d7 2e       	mov	r13, r23
    2090:	c8 2e       	mov	r12, r24
    2092:	b9 2e       	mov	r11, r25
    2094:	5f 93       	push	r21
    2096:	4f 93       	push	r20
    2098:	3f 93       	push	r19
    209a:	2f 93       	push	r18
    209c:	8f e7       	ldi	r24, 0x7F	; 127
    209e:	91 e0       	ldi	r25, 0x01	; 1
    20a0:	9f 93       	push	r25
    20a2:	8f 93       	push	r24
    20a4:	1f 93       	push	r17
    20a6:	0f 93       	push	r16
    20a8:	0e 94 de 1a 	call	0x35bc	; 0x35bc <sprintf>
	UG_SetForecolor(C_WHITE);
    20ac:	8f ef       	ldi	r24, 0xFF	; 255
    20ae:	9f ef       	ldi	r25, 0xFF	; 255
    20b0:	0e 94 df 15 	call	0x2bbe	; 0x2bbe <UG_SetForecolor>
	UG_PutString(85,185,text);
    20b4:	a8 01       	movw	r20, r16
    20b6:	69 eb       	ldi	r22, 0xB9	; 185
    20b8:	70 e0       	ldi	r23, 0x00	; 0
    20ba:	85 e5       	ldi	r24, 0x55	; 85
    20bc:	90 e0       	ldi	r25, 0x00	; 0
    20be:	0e 94 61 19 	call	0x32c2	; 0x32c2 <UG_PutString>
	
	tmp = tmp % 60; //Sec
	memset(text, 0, sizeof text);
    20c2:	f8 01       	movw	r30, r16
    20c4:	8f 2d       	mov	r24, r15
    20c6:	11 92       	st	Z+, r1
    20c8:	8a 95       	dec	r24
    20ca:	e9 f7       	brne	.-6      	; 0x20c6 <fermentationScreen+0x124>
	
	sprintf(text,"Sec: %d",tmp);
    20cc:	bf 92       	push	r11
    20ce:	cf 92       	push	r12
    20d0:	df 92       	push	r13
    20d2:	ef 92       	push	r14
    20d4:	88 e8       	ldi	r24, 0x88	; 136
    20d6:	91 e0       	ldi	r25, 0x01	; 1
    20d8:	9f 93       	push	r25
    20da:	8f 93       	push	r24
    20dc:	1f 93       	push	r17
    20de:	0f 93       	push	r16
    20e0:	0e 94 de 1a 	call	0x35bc	; 0x35bc <sprintf>
	UG_SetForecolor(C_WHITE);
    20e4:	0f b6       	in	r0, 0x3f	; 63
    20e6:	f8 94       	cli
    20e8:	de bf       	out	0x3e, r29	; 62
    20ea:	0f be       	out	0x3f, r0	; 63
    20ec:	cd bf       	out	0x3d, r28	; 61
    20ee:	8f ef       	ldi	r24, 0xFF	; 255
    20f0:	9f ef       	ldi	r25, 0xFF	; 255
    20f2:	0e 94 df 15 	call	0x2bbe	; 0x2bbe <UG_SetForecolor>
	UG_PutString(110,205,text);
    20f6:	a8 01       	movw	r20, r16
    20f8:	6d ec       	ldi	r22, 0xCD	; 205
    20fa:	70 e0       	ldi	r23, 0x00	; 0
    20fc:	8e e6       	ldi	r24, 0x6E	; 110
    20fe:	90 e0       	ldi	r25, 0x00	; 0
    2100:	0e 94 61 19 	call	0x32c2	; 0x32c2 <UG_PutString>
	memset(text, 0, sizeof text);
    2104:	f8 01       	movw	r30, r16
    2106:	8f 2d       	mov	r24, r15
    2108:	11 92       	st	Z+, r1
    210a:	8a 95       	dec	r24
    210c:	e9 f7       	brne	.-6      	; 0x2108 <fermentationScreen+0x166>
	

	sprintf(text,"Temp: %d",temp);
    210e:	80 91 c3 01 	lds	r24, 0x01C3	; 0x8001c3 <temp+0x1>
    2112:	8f 93       	push	r24
    2114:	80 91 c2 01 	lds	r24, 0x01C2	; 0x8001c2 <temp>
    2118:	8f 93       	push	r24
    211a:	83 e6       	ldi	r24, 0x63	; 99
    211c:	91 e0       	ldi	r25, 0x01	; 1
    211e:	9f 93       	push	r25
    2120:	8f 93       	push	r24
    2122:	1f 93       	push	r17
    2124:	0f 93       	push	r16
    2126:	0e 94 de 1a 	call	0x35bc	; 0x35bc <sprintf>
	UG_SetForecolor(C_WHITE);
    212a:	8f ef       	ldi	r24, 0xFF	; 255
    212c:	9f ef       	ldi	r25, 0xFF	; 255
    212e:	0e 94 df 15 	call	0x2bbe	; 0x2bbe <UG_SetForecolor>
	UG_PutString(55,0,text);
    2132:	a8 01       	movw	r20, r16
    2134:	60 e0       	ldi	r22, 0x00	; 0
    2136:	70 e0       	ldi	r23, 0x00	; 0
    2138:	87 e3       	ldi	r24, 0x37	; 55
    213a:	90 e0       	ldi	r25, 0x00	; 0
    213c:	0e 94 61 19 	call	0x32c2	; 0x32c2 <UG_PutString>
	memset(text, 0, sizeof text);
    2140:	f8 01       	movw	r30, r16
    2142:	11 92       	st	Z+, r1
    2144:	fa 94       	dec	r15
    2146:	e9 f7       	brne	.-6      	; 0x2142 <fermentationScreen+0x1a0>
	
	sprintf(text,"Temp ADC: %d",ADC_res);
    2148:	80 91 bf 01 	lds	r24, 0x01BF	; 0x8001bf <ADC_res+0x1>
    214c:	8f 93       	push	r24
    214e:	80 91 be 01 	lds	r24, 0x01BE	; 0x8001be <ADC_res>
    2152:	8f 93       	push	r24
    2154:	80 e9       	ldi	r24, 0x90	; 144
    2156:	91 e0       	ldi	r25, 0x01	; 1
    2158:	9f 93       	push	r25
    215a:	8f 93       	push	r24
    215c:	1f 93       	push	r17
    215e:	0f 93       	push	r16
    2160:	0e 94 de 1a 	call	0x35bc	; 0x35bc <sprintf>
	UG_SetForecolor(C_WHITE);
    2164:	8f ef       	ldi	r24, 0xFF	; 255
    2166:	9f ef       	ldi	r25, 0xFF	; 255
    2168:	0e 94 df 15 	call	0x2bbe	; 0x2bbe <UG_SetForecolor>
	UG_PutString(75,30,text);
    216c:	a8 01       	movw	r20, r16
    216e:	6e e1       	ldi	r22, 0x1E	; 30
    2170:	70 e0       	ldi	r23, 0x00	; 0
    2172:	8b e4       	ldi	r24, 0x4B	; 75
    2174:	90 e0       	ldi	r25, 0x00	; 0
    2176:	0e 94 61 19 	call	0x32c2	; 0x32c2 <UG_PutString>
	memset(text, 0, sizeof text);
		
	return;
    217a:	0f b6       	in	r0, 0x3f	; 63
    217c:	f8 94       	cli
    217e:	de bf       	out	0x3e, r29	; 62
    2180:	0f be       	out	0x3f, r0	; 63
    2182:	cd bf       	out	0x3d, r28	; 61
	
    2184:	64 96       	adiw	r28, 0x14	; 20
    2186:	0f b6       	in	r0, 0x3f	; 63
    2188:	f8 94       	cli
    218a:	de bf       	out	0x3e, r29	; 62
    218c:	0f be       	out	0x3f, r0	; 63
    218e:	cd bf       	out	0x3d, r28	; 61
    2190:	df 91       	pop	r29
    2192:	cf 91       	pop	r28
    2194:	1f 91       	pop	r17
    2196:	0f 91       	pop	r16
    2198:	ff 90       	pop	r15
    219a:	ef 90       	pop	r14
    219c:	df 90       	pop	r13
    219e:	cf 90       	pop	r12
    21a0:	bf 90       	pop	r11
    21a2:	af 90       	pop	r10
    21a4:	9f 90       	pop	r9
    21a6:	8f 90       	pop	r8
    21a8:	08 95       	ret

000021aa <LCD_putchar>:
	ILI9341_fillRect(0, 0,  ILI9341_width, ILI9341_height, color);
}

void ILI9341_invertDisplay(uint8_t i)
{
	ILI9341_WriteCommand(i ? ILI9341_INVON : ILI9341_INVOFF);
    21aa:	cf 93       	push	r28
    21ac:	df 93       	push	r29
    21ae:	00 d0       	rcall	.+0      	; 0x21b0 <LCD_putchar+0x6>
    21b0:	cd b7       	in	r28, 0x3d	; 61
    21b2:	de b7       	in	r29, 0x3e	; 62
    21b4:	89 83       	std	Y+1, r24	; 0x01
    21b6:	1a 82       	std	Y+2, r1	; 0x02
    21b8:	ce 01       	movw	r24, r28
    21ba:	01 96       	adiw	r24, 0x01	; 1
    21bc:	0e 94 ce 19 	call	0x339c	; 0x339c <UG_ConsolePutString>
    21c0:	80 e0       	ldi	r24, 0x00	; 0
    21c2:	90 e0       	ldi	r25, 0x00	; 0
    21c4:	0f 90       	pop	r0
    21c6:	0f 90       	pop	r0
    21c8:	df 91       	pop	r29
    21ca:	cf 91       	pop	r28
    21cc:	08 95       	ret

000021ce <ILI9341_InitSPI>:
    21ce:	23 9a       	sbi	0x04, 3	; 4
    21d0:	24 98       	cbi	0x04, 4	; 4
    21d2:	2c 98       	cbi	0x05, 4	; 5
    21d4:	25 9a       	sbi	0x04, 5	; 4
    21d6:	22 9a       	sbi	0x04, 2	; 4
    21d8:	20 9a       	sbi	0x04, 0	; 4
    21da:	57 9a       	sbi	0x0a, 7	; 10
    21dc:	80 e5       	ldi	r24, 0x50	; 80
    21de:	8c bd       	out	0x2c, r24	; 44
    21e0:	81 e0       	ldi	r24, 0x01	; 1
    21e2:	8d bd       	out	0x2d, r24	; 45
    21e4:	08 95       	ret

000021e6 <ILI9341_SPIwrite>:
    21e6:	8e bd       	out	0x2e, r24	; 46
    21e8:	0d b4       	in	r0, 0x2d	; 45
    21ea:	07 fe       	sbrs	r0, 7
    21ec:	fd cf       	rjmp	.-6      	; 0x21e8 <ILI9341_SPIwrite+0x2>
    21ee:	8e b5       	in	r24, 0x2e	; 46
    21f0:	08 95       	ret

000021f2 <ILI9341_WriteCommand>:
    21f2:	28 98       	cbi	0x05, 0	; 5
    21f4:	2a 98       	cbi	0x05, 2	; 5
    21f6:	0e 94 f3 10 	call	0x21e6	; 0x21e6 <ILI9341_SPIwrite>
    21fa:	2a 9a       	sbi	0x05, 2	; 5
    21fc:	08 95       	ret

000021fe <ILI9341_WriteData>:
    21fe:	28 9a       	sbi	0x05, 0	; 5
    2200:	2a 98       	cbi	0x05, 2	; 5
    2202:	0e 94 f3 10 	call	0x21e6	; 0x21e6 <ILI9341_SPIwrite>
    2206:	2a 9a       	sbi	0x05, 2	; 5
    2208:	08 95       	ret

0000220a <ILI9341_setRotation>:
    220a:	cf 93       	push	r28
    220c:	c8 2f       	mov	r28, r24
    220e:	86 e3       	ldi	r24, 0x36	; 54
    2210:	0e 94 f9 10 	call	0x21f2	; 0x21f2 <ILI9341_WriteCommand>
    2214:	8c 2f       	mov	r24, r28
    2216:	83 70       	andi	r24, 0x03	; 3
    2218:	80 93 c8 01 	sts	0x01C8, r24	; 0x8001c8 <ILI9341_rotation>
    221c:	81 30       	cpi	r24, 0x01	; 1
    221e:	b1 f0       	breq	.+44     	; 0x224c <ILI9341_setRotation+0x42>
    2220:	28 f0       	brcs	.+10     	; 0x222c <ILI9341_setRotation+0x22>
    2222:	82 30       	cpi	r24, 0x02	; 2
    2224:	19 f1       	breq	.+70     	; 0x226c <ILI9341_setRotation+0x62>
    2226:	83 30       	cpi	r24, 0x03	; 3
    2228:	89 f1       	breq	.+98     	; 0x228c <ILI9341_setRotation+0x82>
    222a:	3f c0       	rjmp	.+126    	; 0x22aa <ILI9341_setRotation+0xa0>
    222c:	88 e4       	ldi	r24, 0x48	; 72
    222e:	0e 94 ff 10 	call	0x21fe	; 0x21fe <ILI9341_WriteData>
    2232:	80 ef       	ldi	r24, 0xF0	; 240
    2234:	90 e0       	ldi	r25, 0x00	; 0
    2236:	90 93 11 01 	sts	0x0111, r25	; 0x800111 <ILI9341_width+0x1>
    223a:	80 93 10 01 	sts	0x0110, r24	; 0x800110 <ILI9341_width>
    223e:	80 e4       	ldi	r24, 0x40	; 64
    2240:	91 e0       	ldi	r25, 0x01	; 1
    2242:	90 93 0f 01 	sts	0x010F, r25	; 0x80010f <ILI9341_height+0x1>
    2246:	80 93 0e 01 	sts	0x010E, r24	; 0x80010e <ILI9341_height>
    224a:	2f c0       	rjmp	.+94     	; 0x22aa <ILI9341_setRotation+0xa0>
    224c:	88 e2       	ldi	r24, 0x28	; 40
    224e:	0e 94 ff 10 	call	0x21fe	; 0x21fe <ILI9341_WriteData>
    2252:	80 e4       	ldi	r24, 0x40	; 64
    2254:	91 e0       	ldi	r25, 0x01	; 1
    2256:	90 93 11 01 	sts	0x0111, r25	; 0x800111 <ILI9341_width+0x1>
    225a:	80 93 10 01 	sts	0x0110, r24	; 0x800110 <ILI9341_width>
    225e:	80 ef       	ldi	r24, 0xF0	; 240
    2260:	90 e0       	ldi	r25, 0x00	; 0
    2262:	90 93 0f 01 	sts	0x010F, r25	; 0x80010f <ILI9341_height+0x1>
    2266:	80 93 0e 01 	sts	0x010E, r24	; 0x80010e <ILI9341_height>
    226a:	1f c0       	rjmp	.+62     	; 0x22aa <ILI9341_setRotation+0xa0>
    226c:	88 e8       	ldi	r24, 0x88	; 136
    226e:	0e 94 ff 10 	call	0x21fe	; 0x21fe <ILI9341_WriteData>
    2272:	80 ef       	ldi	r24, 0xF0	; 240
    2274:	90 e0       	ldi	r25, 0x00	; 0
    2276:	90 93 11 01 	sts	0x0111, r25	; 0x800111 <ILI9341_width+0x1>
    227a:	80 93 10 01 	sts	0x0110, r24	; 0x800110 <ILI9341_width>
    227e:	80 e4       	ldi	r24, 0x40	; 64
    2280:	91 e0       	ldi	r25, 0x01	; 1
    2282:	90 93 0f 01 	sts	0x010F, r25	; 0x80010f <ILI9341_height+0x1>
    2286:	80 93 0e 01 	sts	0x010E, r24	; 0x80010e <ILI9341_height>
    228a:	0f c0       	rjmp	.+30     	; 0x22aa <ILI9341_setRotation+0xa0>
    228c:	88 ee       	ldi	r24, 0xE8	; 232
    228e:	0e 94 ff 10 	call	0x21fe	; 0x21fe <ILI9341_WriteData>
    2292:	80 e4       	ldi	r24, 0x40	; 64
    2294:	91 e0       	ldi	r25, 0x01	; 1
    2296:	90 93 11 01 	sts	0x0111, r25	; 0x800111 <ILI9341_width+0x1>
    229a:	80 93 10 01 	sts	0x0110, r24	; 0x800110 <ILI9341_width>
    229e:	80 ef       	ldi	r24, 0xF0	; 240
    22a0:	90 e0       	ldi	r25, 0x00	; 0
    22a2:	90 93 0f 01 	sts	0x010F, r25	; 0x80010f <ILI9341_height+0x1>
    22a6:	80 93 0e 01 	sts	0x010E, r24	; 0x80010e <ILI9341_height>
    22aa:	cf 91       	pop	r28
    22ac:	08 95       	ret

000022ae <ILI9341_Init>:
    22ae:	5f 98       	cbi	0x0b, 7	; 11
    22b0:	0e 94 e7 10 	call	0x21ce	; 0x21ce <ILI9341_InitSPI>
    22b4:	56 9a       	sbi	0x0a, 6	; 10
    22b6:	5f 9a       	sbi	0x0b, 7	; 11
    22b8:	8f e1       	ldi	r24, 0x1F	; 31
    22ba:	9e e4       	ldi	r25, 0x4E	; 78
    22bc:	01 97       	sbiw	r24, 0x01	; 1
    22be:	f1 f7       	brne	.-4      	; 0x22bc <ILI9341_Init+0xe>
    22c0:	00 c0       	rjmp	.+0      	; 0x22c2 <ILI9341_Init+0x14>
    22c2:	00 00       	nop
    22c4:	5f 98       	cbi	0x0b, 7	; 11
    22c6:	9f ef       	ldi	r25, 0xFF	; 255
    22c8:	29 ef       	ldi	r18, 0xF9	; 249
    22ca:	80 e0       	ldi	r24, 0x00	; 0
    22cc:	91 50       	subi	r25, 0x01	; 1
    22ce:	20 40       	sbci	r18, 0x00	; 0
    22d0:	80 40       	sbci	r24, 0x00	; 0
    22d2:	e1 f7       	brne	.-8      	; 0x22cc <ILI9341_Init+0x1e>
    22d4:	00 c0       	rjmp	.+0      	; 0x22d6 <ILI9341_Init+0x28>
    22d6:	00 00       	nop
    22d8:	5f 9a       	sbi	0x0b, 7	; 11
    22da:	9f ef       	ldi	r25, 0xFF	; 255
    22dc:	22 e5       	ldi	r18, 0x52	; 82
    22de:	87 e0       	ldi	r24, 0x07	; 7
    22e0:	91 50       	subi	r25, 0x01	; 1
    22e2:	20 40       	sbci	r18, 0x00	; 0
    22e4:	80 40       	sbci	r24, 0x00	; 0
    22e6:	e1 f7       	brne	.-8      	; 0x22e0 <ILI9341_Init+0x32>
    22e8:	00 c0       	rjmp	.+0      	; 0x22ea <ILI9341_Init+0x3c>
    22ea:	00 00       	nop
    22ec:	83 e0       	ldi	r24, 0x03	; 3
    22ee:	0e 94 05 11 	call	0x220a	; 0x220a <ILI9341_setRotation>
    22f2:	8a e3       	ldi	r24, 0x3A	; 58
    22f4:	0e 94 f9 10 	call	0x21f2	; 0x21f2 <ILI9341_WriteCommand>
    22f8:	85 e5       	ldi	r24, 0x55	; 85
    22fa:	0e 94 ff 10 	call	0x21fe	; 0x21fe <ILI9341_WriteData>
    22fe:	81 e1       	ldi	r24, 0x11	; 17
    2300:	0e 94 f9 10 	call	0x21f2	; 0x21f2 <ILI9341_WriteCommand>
    2304:	9f ef       	ldi	r25, 0xFF	; 255
    2306:	2b ed       	ldi	r18, 0xDB	; 219
    2308:	85 e0       	ldi	r24, 0x05	; 5
    230a:	91 50       	subi	r25, 0x01	; 1
    230c:	20 40       	sbci	r18, 0x00	; 0
    230e:	80 40       	sbci	r24, 0x00	; 0
    2310:	e1 f7       	brne	.-8      	; 0x230a <ILI9341_Init+0x5c>
    2312:	00 c0       	rjmp	.+0      	; 0x2314 <ILI9341_Init+0x66>
    2314:	00 00       	nop
    2316:	89 e2       	ldi	r24, 0x29	; 41
    2318:	0e 94 f9 10 	call	0x21f2	; 0x21f2 <ILI9341_WriteCommand>
    231c:	5e 98       	cbi	0x0b, 6	; 11
    231e:	08 95       	ret

00002320 <ILI9341_setAddrWindow>:
    2320:	cf 92       	push	r12
    2322:	df 92       	push	r13
    2324:	ef 92       	push	r14
    2326:	ff 92       	push	r15
    2328:	0f 93       	push	r16
    232a:	1f 93       	push	r17
    232c:	cf 93       	push	r28
    232e:	df 93       	push	r29
    2330:	d8 2e       	mov	r13, r24
    2332:	c9 2e       	mov	r12, r25
    2334:	16 2f       	mov	r17, r22
    2336:	07 2f       	mov	r16, r23
    2338:	f4 2e       	mov	r15, r20
    233a:	e5 2e       	mov	r14, r21
    233c:	c2 2f       	mov	r28, r18
    233e:	d3 2f       	mov	r29, r19
    2340:	8a e2       	ldi	r24, 0x2A	; 42
    2342:	0e 94 f9 10 	call	0x21f2	; 0x21f2 <ILI9341_WriteCommand>
    2346:	8c 2d       	mov	r24, r12
    2348:	0e 94 ff 10 	call	0x21fe	; 0x21fe <ILI9341_WriteData>
    234c:	8d 2d       	mov	r24, r13
    234e:	0e 94 ff 10 	call	0x21fe	; 0x21fe <ILI9341_WriteData>
    2352:	8e 2d       	mov	r24, r14
    2354:	0e 94 ff 10 	call	0x21fe	; 0x21fe <ILI9341_WriteData>
    2358:	8f 2d       	mov	r24, r15
    235a:	0e 94 ff 10 	call	0x21fe	; 0x21fe <ILI9341_WriteData>
    235e:	8b e2       	ldi	r24, 0x2B	; 43
    2360:	0e 94 f9 10 	call	0x21f2	; 0x21f2 <ILI9341_WriteCommand>
    2364:	80 2f       	mov	r24, r16
    2366:	0e 94 ff 10 	call	0x21fe	; 0x21fe <ILI9341_WriteData>
    236a:	81 2f       	mov	r24, r17
    236c:	0e 94 ff 10 	call	0x21fe	; 0x21fe <ILI9341_WriteData>
    2370:	8d 2f       	mov	r24, r29
    2372:	0e 94 ff 10 	call	0x21fe	; 0x21fe <ILI9341_WriteData>
    2376:	8c 2f       	mov	r24, r28
    2378:	0e 94 ff 10 	call	0x21fe	; 0x21fe <ILI9341_WriteData>
    237c:	8c e2       	ldi	r24, 0x2C	; 44
    237e:	0e 94 f9 10 	call	0x21f2	; 0x21f2 <ILI9341_WriteCommand>
    2382:	df 91       	pop	r29
    2384:	cf 91       	pop	r28
    2386:	1f 91       	pop	r17
    2388:	0f 91       	pop	r16
    238a:	ff 90       	pop	r15
    238c:	ef 90       	pop	r14
    238e:	df 90       	pop	r13
    2390:	cf 90       	pop	r12
    2392:	08 95       	ret

00002394 <_HW_SetArea_>:
    2394:	0e 94 90 11 	call	0x2320	; 0x2320 <ILI9341_setAddrWindow>
    2398:	08 95       	ret

0000239a <ILI9341_pushColor>:
    239a:	cf 93       	push	r28
    239c:	c8 2f       	mov	r28, r24
    239e:	28 9a       	sbi	0x05, 0	; 5
    23a0:	2a 98       	cbi	0x05, 2	; 5
    23a2:	89 2f       	mov	r24, r25
    23a4:	0e 94 f3 10 	call	0x21e6	; 0x21e6 <ILI9341_SPIwrite>
    23a8:	8c 2f       	mov	r24, r28
    23aa:	0e 94 f3 10 	call	0x21e6	; 0x21e6 <ILI9341_SPIwrite>
    23ae:	2a 9a       	sbi	0x05, 2	; 5
    23b0:	cf 91       	pop	r28
    23b2:	08 95       	ret

000023b4 <_HW_PushPixel>:
    23b4:	0e 94 cd 11 	call	0x239a	; 0x239a <ILI9341_pushColor>
    23b8:	08 95       	ret

000023ba <ILI9341_drawPixel>:
    23ba:	cf 93       	push	r28
    23bc:	df 93       	push	r29
    23be:	99 23       	and	r25, r25
    23c0:	1c f1       	brlt	.+70     	; 0x2408 <ILI9341_drawPixel+0x4e>
    23c2:	20 91 10 01 	lds	r18, 0x0110	; 0x800110 <ILI9341_width>
    23c6:	30 91 11 01 	lds	r19, 0x0111	; 0x800111 <ILI9341_width+0x1>
    23ca:	82 17       	cp	r24, r18
    23cc:	93 07       	cpc	r25, r19
    23ce:	e0 f4       	brcc	.+56     	; 0x2408 <ILI9341_drawPixel+0x4e>
    23d0:	77 23       	and	r23, r23
    23d2:	d4 f0       	brlt	.+52     	; 0x2408 <ILI9341_drawPixel+0x4e>
    23d4:	20 91 0e 01 	lds	r18, 0x010E	; 0x80010e <ILI9341_height>
    23d8:	30 91 0f 01 	lds	r19, 0x010F	; 0x80010f <ILI9341_height+0x1>
    23dc:	62 17       	cp	r22, r18
    23de:	73 07       	cpc	r23, r19
    23e0:	98 f4       	brcc	.+38     	; 0x2408 <ILI9341_drawPixel+0x4e>
    23e2:	d5 2f       	mov	r29, r21
    23e4:	c4 2f       	mov	r28, r20
    23e6:	9b 01       	movw	r18, r22
    23e8:	2f 5f       	subi	r18, 0xFF	; 255
    23ea:	3f 4f       	sbci	r19, 0xFF	; 255
    23ec:	ac 01       	movw	r20, r24
    23ee:	4f 5f       	subi	r20, 0xFF	; 255
    23f0:	5f 4f       	sbci	r21, 0xFF	; 255
    23f2:	0e 94 90 11 	call	0x2320	; 0x2320 <ILI9341_setAddrWindow>
    23f6:	28 9a       	sbi	0x05, 0	; 5
    23f8:	2a 98       	cbi	0x05, 2	; 5
    23fa:	8d 2f       	mov	r24, r29
    23fc:	0e 94 f3 10 	call	0x21e6	; 0x21e6 <ILI9341_SPIwrite>
    2400:	8c 2f       	mov	r24, r28
    2402:	0e 94 f3 10 	call	0x21e6	; 0x21e6 <ILI9341_SPIwrite>
    2406:	2a 9a       	sbi	0x05, 2	; 5
    2408:	df 91       	pop	r29
    240a:	cf 91       	pop	r28
    240c:	08 95       	ret

0000240e <UserPixelSetFunction>:
    240e:	0e 94 dd 11 	call	0x23ba	; 0x23ba <ILI9341_drawPixel>
    2412:	08 95       	ret

00002414 <ILI9341_fillRect>:
    2414:	cf 92       	push	r12
    2416:	df 92       	push	r13
    2418:	ef 92       	push	r14
    241a:	ff 92       	push	r15
    241c:	0f 93       	push	r16
    241e:	1f 93       	push	r17
    2420:	cf 93       	push	r28
    2422:	df 93       	push	r29
    2424:	6a 01       	movw	r12, r20
    2426:	79 01       	movw	r14, r18
    2428:	20 91 10 01 	lds	r18, 0x0110	; 0x800110 <ILI9341_width>
    242c:	30 91 11 01 	lds	r19, 0x0111	; 0x800111 <ILI9341_width+0x1>
    2430:	82 17       	cp	r24, r18
    2432:	93 07       	cpc	r25, r19
    2434:	08 f0       	brcs	.+2      	; 0x2438 <ILI9341_fillRect+0x24>
    2436:	40 c0       	rjmp	.+128    	; 0x24b8 <ILI9341_fillRect+0xa4>
    2438:	40 91 0e 01 	lds	r20, 0x010E	; 0x80010e <ILI9341_height>
    243c:	50 91 0f 01 	lds	r21, 0x010F	; 0x80010f <ILI9341_height+0x1>
    2440:	64 17       	cp	r22, r20
    2442:	75 07       	cpc	r23, r21
    2444:	c8 f5       	brcc	.+114    	; 0x24b8 <ILI9341_fillRect+0xa4>
    2446:	fc 01       	movw	r30, r24
    2448:	ec 0d       	add	r30, r12
    244a:	fd 1d       	adc	r31, r13
    244c:	31 97       	sbiw	r30, 0x01	; 1
    244e:	e2 17       	cp	r30, r18
    2450:	f3 07       	cpc	r31, r19
    2452:	18 f0       	brcs	.+6      	; 0x245a <ILI9341_fillRect+0x46>
    2454:	69 01       	movw	r12, r18
    2456:	c8 1a       	sub	r12, r24
    2458:	d9 0a       	sbc	r13, r25
    245a:	9b 01       	movw	r18, r22
    245c:	2e 0d       	add	r18, r14
    245e:	3f 1d       	adc	r19, r15
    2460:	21 50       	subi	r18, 0x01	; 1
    2462:	31 09       	sbc	r19, r1
    2464:	24 17       	cp	r18, r20
    2466:	35 07       	cpc	r19, r21
    2468:	18 f0       	brcs	.+6      	; 0x2470 <ILI9341_fillRect+0x5c>
    246a:	7a 01       	movw	r14, r20
    246c:	e6 1a       	sub	r14, r22
    246e:	f7 0a       	sbc	r15, r23
    2470:	97 01       	movw	r18, r14
    2472:	26 0f       	add	r18, r22
    2474:	37 1f       	adc	r19, r23
    2476:	21 50       	subi	r18, 0x01	; 1
    2478:	31 09       	sbc	r19, r1
    247a:	a6 01       	movw	r20, r12
    247c:	48 0f       	add	r20, r24
    247e:	59 1f       	adc	r21, r25
    2480:	41 50       	subi	r20, 0x01	; 1
    2482:	51 09       	sbc	r21, r1
    2484:	0e 94 90 11 	call	0x2320	; 0x2320 <ILI9341_setAddrWindow>
    2488:	28 9a       	sbi	0x05, 0	; 5
    248a:	2a 98       	cbi	0x05, 2	; 5
    248c:	1e 14       	cp	r1, r14
    248e:	1f 04       	cpc	r1, r15
    2490:	94 f4       	brge	.+36     	; 0x24b6 <ILI9341_fillRect+0xa2>
    2492:	0d c0       	rjmp	.+26     	; 0x24ae <ILI9341_fillRect+0x9a>
    2494:	e6 01       	movw	r28, r12
    2496:	81 2f       	mov	r24, r17
    2498:	0e 94 f3 10 	call	0x21e6	; 0x21e6 <ILI9341_SPIwrite>
    249c:	80 2f       	mov	r24, r16
    249e:	0e 94 f3 10 	call	0x21e6	; 0x21e6 <ILI9341_SPIwrite>
    24a2:	21 97       	sbiw	r28, 0x01	; 1
    24a4:	c1 f7       	brne	.-16     	; 0x2496 <ILI9341_fillRect+0x82>
    24a6:	81 e0       	ldi	r24, 0x01	; 1
    24a8:	e8 1a       	sub	r14, r24
    24aa:	f1 08       	sbc	r15, r1
    24ac:	21 f0       	breq	.+8      	; 0x24b6 <ILI9341_fillRect+0xa2>
    24ae:	1c 14       	cp	r1, r12
    24b0:	1d 04       	cpc	r1, r13
    24b2:	84 f3       	brlt	.-32     	; 0x2494 <ILI9341_fillRect+0x80>
    24b4:	f8 cf       	rjmp	.-16     	; 0x24a6 <ILI9341_fillRect+0x92>
    24b6:	2a 9a       	sbi	0x05, 2	; 5
    24b8:	df 91       	pop	r29
    24ba:	cf 91       	pop	r28
    24bc:	1f 91       	pop	r17
    24be:	0f 91       	pop	r16
    24c0:	ff 90       	pop	r15
    24c2:	ef 90       	pop	r14
    24c4:	df 90       	pop	r13
    24c6:	cf 90       	pop	r12
    24c8:	08 95       	ret

000024ca <_HW_FillFrame_>:
    24ca:	0f 93       	push	r16
    24cc:	1f 93       	push	r17
    24ce:	26 1b       	sub	r18, r22
    24d0:	37 0b       	sbc	r19, r23
    24d2:	48 1b       	sub	r20, r24
    24d4:	59 0b       	sbc	r21, r25
    24d6:	0e 94 0a 12 	call	0x2414	; 0x2414 <ILI9341_fillRect>
    24da:	80 e0       	ldi	r24, 0x00	; 0
    24dc:	1f 91       	pop	r17
    24de:	0f 91       	pop	r16
    24e0:	08 95       	ret

000024e2 <LCD_Init>:
	}
#endif

//////////////////// HIGH LEVEL INIT ////////////////////
void LCD_Init()
{
    24e2:	0f 93       	push	r16
    24e4:	1f 93       	push	r17
	ILI9341_Init();
    24e6:	0e 94 57 11 	call	0x22ae	; 0x22ae <ILI9341_Init>
	ILI9341_DDR_BACKLIGHT |= (1<<ILI9341_BIT_BACKLIGHT);
    24ea:	56 9a       	sbi	0x0a, 6	; 10
	ILI9341_BACKLIGHT_ON();
    24ec:	5e 98       	cbi	0x0b, 6	; 11
	UG_Init(&gui , UserPixelSetFunction , ILI9341_width , ILI9341_height) ;
    24ee:	20 91 0e 01 	lds	r18, 0x010E	; 0x80010e <ILI9341_height>
    24f2:	30 91 0f 01 	lds	r19, 0x010F	; 0x80010f <ILI9341_height+0x1>
    24f6:	40 91 10 01 	lds	r20, 0x0110	; 0x800110 <ILI9341_width>
    24fa:	50 91 11 01 	lds	r21, 0x0111	; 0x800111 <ILI9341_width+0x1>
    24fe:	67 e0       	ldi	r22, 0x07	; 7
    2500:	72 e1       	ldi	r23, 0x12	; 18
    2502:	89 ec       	ldi	r24, 0xC9	; 201
    2504:	91 e0       	ldi	r25, 0x01	; 1
    2506:	0e 94 4e 14 	call	0x289c	; 0x289c <UG_Init>
	UG_DriverRegister(DRIVER_FILL_FRAME, ( void *) _HW_FillFrame_ );
    250a:	65 e6       	ldi	r22, 0x65	; 101
    250c:	72 e1       	ldi	r23, 0x12	; 18
    250e:	81 e0       	ldi	r24, 0x01	; 1
    2510:	0e 94 4a 1a 	call	0x3494	; 0x3494 <UG_DriverRegister>
	UG_DriverRegister(DRIVER_SET_AREA, ( void *) _HW_SetArea_ );
    2514:	6a ec       	ldi	r22, 0xCA	; 202
    2516:	71 e1       	ldi	r23, 0x11	; 17
    2518:	82 e0       	ldi	r24, 0x02	; 2
    251a:	0e 94 4a 1a 	call	0x3494	; 0x3494 <UG_DriverRegister>
	UG_DriverRegister(DRIVER_PUSH_PIXEL, ( void *) _HW_PushPixel );
    251e:	6a ed       	ldi	r22, 0xDA	; 218
    2520:	71 e1       	ldi	r23, 0x11	; 17
    2522:	83 e0       	ldi	r24, 0x03	; 3
    2524:	0e 94 4a 1a 	call	0x3494	; 0x3494 <UG_DriverRegister>
	UG_DriverEnable(DRIVER_FILL_FRAME);
    2528:	81 e0       	ldi	r24, 0x01	; 1
    252a:	0e 94 5e 1a 	call	0x34bc	; 0x34bc <UG_DriverEnable>
	UG_DriverEnable(DRIVER_SET_AREA);
    252e:	82 e0       	ldi	r24, 0x02	; 2
    2530:	0e 94 5e 1a 	call	0x34bc	; 0x34bc <UG_DriverEnable>
	UG_DriverEnable(DRIVER_PUSH_PIXEL);
    2534:	83 e0       	ldi	r24, 0x03	; 3
    2536:	0e 94 5e 1a 	call	0x34bc	; 0x34bc <UG_DriverEnable>

	ILI9341_fillRect(0,0,320,240,ILI9341_BLACK);
    253a:	00 e0       	ldi	r16, 0x00	; 0
    253c:	10 e0       	ldi	r17, 0x00	; 0
    253e:	20 ef       	ldi	r18, 0xF0	; 240
    2540:	30 e0       	ldi	r19, 0x00	; 0
    2542:	40 e4       	ldi	r20, 0x40	; 64
    2544:	51 e0       	ldi	r21, 0x01	; 1
    2546:	60 e0       	ldi	r22, 0x00	; 0
    2548:	70 e0       	ldi	r23, 0x00	; 0
    254a:	80 e0       	ldi	r24, 0x00	; 0
    254c:	90 e0       	ldi	r25, 0x00	; 0
    254e:	0e 94 0a 12 	call	0x2414	; 0x2414 <ILI9341_fillRect>
	UG_FontSelect ( &RFONT_8X12 ) ;
    2552:	8a ea       	ldi	r24, 0xAA	; 170
    2554:	91 e0       	ldi	r25, 0x01	; 1
    2556:	0e 94 9e 14 	call	0x293c	; 0x293c <UG_FontSelect>
	UG_SetForecolor ( ILI9341_WHITE ) ;
    255a:	8f ef       	ldi	r24, 0xFF	; 255
    255c:	9f ef       	ldi	r25, 0xFF	; 255
    255e:	0e 94 df 15 	call	0x2bbe	; 0x2bbe <UG_SetForecolor>
	UG_ConsoleSetBackcolor ( ILI9341_BLACK ) ;
    2562:	80 e0       	ldi	r24, 0x00	; 0
    2564:	90 e0       	ldi	r25, 0x00	; 0
    2566:	0e 94 d8 15 	call	0x2bb0	; 0x2bb0 <UG_ConsoleSetBackcolor>
	UG_ConsoleSetForecolor ( ILI9341_WHITE ) ;
    256a:	8f ef       	ldi	r24, 0xFF	; 255
    256c:	9f ef       	ldi	r25, 0xFF	; 255
    256e:	0e 94 d1 15 	call	0x2ba2	; 0x2ba2 <UG_ConsoleSetForecolor>
	UG_ConsoleSetArea(1,1,318,238);
    2572:	2e ee       	ldi	r18, 0xEE	; 238
    2574:	30 e0       	ldi	r19, 0x00	; 0
    2576:	4e e3       	ldi	r20, 0x3E	; 62
    2578:	51 e0       	ldi	r21, 0x01	; 1
    257a:	61 e0       	ldi	r22, 0x01	; 1
    257c:	70 e0       	ldi	r23, 0x00	; 0
    257e:	81 e0       	ldi	r24, 0x01	; 1
    2580:	90 e0       	ldi	r25, 0x00	; 0
    2582:	0e 94 c4 15 	call	0x2b88	; 0x2b88 <UG_ConsoleSetArea>
#ifdef LCD_USE_PRINTF
	stdout=&LCD_stream;
    2586:	80 e0       	ldi	r24, 0x00	; 0
    2588:	91 e0       	ldi	r25, 0x01	; 1
    258a:	90 93 14 02 	sts	0x0214, r25	; 0x800214 <__iob+0x3>
    258e:	80 93 13 02 	sts	0x0213, r24	; 0x800213 <__iob+0x2>
#endif
    2592:	1f 91       	pop	r17
    2594:	0f 91       	pop	r16
    2596:	08 95       	ret

00002598 <main>:
#include "PWMHandler.h"
#include "Globals.h"

int main(void)
{	
	days = 0;
    2598:	10 92 c1 01 	sts	0x01C1, r1	; 0x8001c1 <days+0x1>
    259c:	10 92 c0 01 	sts	0x01C0, r1	; 0x8001c0 <days>
	temp = 0;
    25a0:	10 92 c3 01 	sts	0x01C3, r1	; 0x8001c3 <temp+0x1>
    25a4:	10 92 c2 01 	sts	0x01C2, r1	; 0x8001c2 <temp>
    init_IO();
    25a8:	0e 94 7e 13 	call	0x26fc	; 0x26fc <init_IO>
	sei();
    25ac:	78 94       	sei
	startUp();
    25ae:	0e 94 ef 0c 	call	0x19de	; 0x19de <startUp>
	mainScreenTime();
    25b2:	0e 94 94 0d 	call	0x1b28	; 0x1b28 <mainScreenTime>
	mainScreenTemp();
    25b6:	0e 94 b1 0e 	call	0x1d62	; 0x1d62 <mainScreenTemp>
	init_TH();
    25ba:	0e 94 20 14 	call	0x2840	; 0x2840 <init_TH>
	LCD_Init();
    25be:	0e 94 71 12 	call	0x24e2	; 0x24e2 <LCD_Init>
	init_ADC();
    25c2:	0e 94 cc 0c 	call	0x1998	; 0x1998 <init_ADC>
	init_PWM();
    25c6:	0e 94 ef 13 	call	0x27de	; 0x27de <init_PWM>
	fermentationScreen();
    25ca:	0e 94 d1 0f 	call	0x1fa2	; 0x1fa2 <fermentationScreen>
    25ce:	ff cf       	rjmp	.-2      	; 0x25ce <main+0x36>

000025d0 <__vector_11>:
		
    }
}

ISR(TIMER1_COMPA_vect)
{
    25d0:	1f 92       	push	r1
    25d2:	0f 92       	push	r0
    25d4:	0f b6       	in	r0, 0x3f	; 63
    25d6:	0f 92       	push	r0
    25d8:	11 24       	eor	r1, r1
    25da:	2f 93       	push	r18
    25dc:	3f 93       	push	r19
    25de:	4f 93       	push	r20
    25e0:	5f 93       	push	r21
    25e2:	6f 93       	push	r22
    25e4:	7f 93       	push	r23
    25e6:	8f 93       	push	r24
    25e8:	9f 93       	push	r25
    25ea:	af 93       	push	r26
    25ec:	bf 93       	push	r27
    25ee:	ef 93       	push	r30
    25f0:	ff 93       	push	r31
	
	if(globalTime -1 != 0)
    25f2:	80 91 c4 01 	lds	r24, 0x01C4	; 0x8001c4 <globalTime>
    25f6:	90 91 c5 01 	lds	r25, 0x01C5	; 0x8001c5 <globalTime+0x1>
    25fa:	a0 91 c6 01 	lds	r26, 0x01C6	; 0x8001c6 <globalTime+0x2>
    25fe:	b0 91 c7 01 	lds	r27, 0x01C7	; 0x8001c7 <globalTime+0x3>
    2602:	01 97       	sbiw	r24, 0x01	; 1
    2604:	a1 05       	cpc	r26, r1
    2606:	b1 05       	cpc	r27, r1
    2608:	b1 f0       	breq	.+44     	; 0x2636 <__vector_11+0x66>
		fermentationScreen();
    260a:	0e 94 d1 0f 	call	0x1fa2	; 0x1fa2 <fermentationScreen>
		disable_TH();
		disable_ADC();
		disable_PWM();
		main();
	}
		globalTime --;		
    260e:	80 91 c4 01 	lds	r24, 0x01C4	; 0x8001c4 <globalTime>
    2612:	90 91 c5 01 	lds	r25, 0x01C5	; 0x8001c5 <globalTime+0x1>
    2616:	a0 91 c6 01 	lds	r26, 0x01C6	; 0x8001c6 <globalTime+0x2>
    261a:	b0 91 c7 01 	lds	r27, 0x01C7	; 0x8001c7 <globalTime+0x3>
    261e:	01 97       	sbiw	r24, 0x01	; 1
    2620:	a1 09       	sbc	r26, r1
    2622:	b1 09       	sbc	r27, r1
    2624:	80 93 c4 01 	sts	0x01C4, r24	; 0x8001c4 <globalTime>
    2628:	90 93 c5 01 	sts	0x01C5, r25	; 0x8001c5 <globalTime+0x1>
    262c:	a0 93 c6 01 	sts	0x01C6, r26	; 0x8001c6 <globalTime+0x2>
    2630:	b0 93 c7 01 	sts	0x01C7, r27	; 0x8001c7 <globalTime+0x3>
}
    2634:	08 c0       	rjmp	.+16     	; 0x2646 <__vector_11+0x76>
	
	if(globalTime -1 != 0)
		fermentationScreen();
	else
	{
		disable_TH();
    2636:	0e 94 38 14 	call	0x2870	; 0x2870 <disable_TH>
		disable_ADC();
    263a:	0e 94 e4 0c 	call	0x19c8	; 0x19c8 <disable_ADC>
		disable_PWM();
    263e:	0e 94 ea 13 	call	0x27d4	; 0x27d4 <disable_PWM>
		main();
    2642:	0e 94 cc 12 	call	0x2598	; 0x2598 <main>
	}
		globalTime --;		
}
    2646:	ff 91       	pop	r31
    2648:	ef 91       	pop	r30
    264a:	bf 91       	pop	r27
    264c:	af 91       	pop	r26
    264e:	9f 91       	pop	r25
    2650:	8f 91       	pop	r24
    2652:	7f 91       	pop	r23
    2654:	6f 91       	pop	r22
    2656:	5f 91       	pop	r21
    2658:	4f 91       	pop	r20
    265a:	3f 91       	pop	r19
    265c:	2f 91       	pop	r18
    265e:	0f 90       	pop	r0
    2660:	0f be       	out	0x3f, r0	; 63
    2662:	0f 90       	pop	r0
    2664:	1f 90       	pop	r1
    2666:	18 95       	reti

00002668 <__vector_21>:

ISR(ADC_vect)
{
    2668:	1f 92       	push	r1
    266a:	0f 92       	push	r0
    266c:	0f b6       	in	r0, 0x3f	; 63
    266e:	0f 92       	push	r0
    2670:	11 24       	eor	r1, r1
    2672:	2f 93       	push	r18
    2674:	3f 93       	push	r19
    2676:	4f 93       	push	r20
    2678:	5f 93       	push	r21
    267a:	6f 93       	push	r22
    267c:	7f 93       	push	r23
    267e:	8f 93       	push	r24
    2680:	9f 93       	push	r25
    2682:	af 93       	push	r26
    2684:	bf 93       	push	r27
    2686:	ef 93       	push	r30
    2688:	ff 93       	push	r31
	ADC_res = ADC;
    268a:	80 91 78 00 	lds	r24, 0x0078	; 0x800078 <__DATA_REGION_ORIGIN__+0x18>
    268e:	90 91 79 00 	lds	r25, 0x0079	; 0x800079 <__DATA_REGION_ORIGIN__+0x19>
    2692:	90 93 bf 01 	sts	0x01BF, r25	; 0x8001bf <ADC_res+0x1>
    2696:	80 93 be 01 	sts	0x01BE, r24	; 0x8001be <ADC_res>
	if(ADC_res >= 512)
    269a:	81 15       	cp	r24, r1
    269c:	92 40       	sbci	r25, 0x02	; 2
    269e:	8c f0       	brlt	.+34     	; 0x26c2 <__vector_21+0x5a>
	{
		
		OCR4A=0;
    26a0:	10 92 a9 00 	sts	0x00A9, r1	; 0x8000a9 <__DATA_REGION_ORIGIN__+0x49>
    26a4:	10 92 a8 00 	sts	0x00A8, r1	; 0x8000a8 <__DATA_REGION_ORIGIN__+0x48>
		OCR3A = 1000;
    26a8:	88 ee       	ldi	r24, 0xE8	; 232
    26aa:	93 e0       	ldi	r25, 0x03	; 3
    26ac:	90 93 99 00 	sts	0x0099, r25	; 0x800099 <__DATA_REGION_ORIGIN__+0x39>
    26b0:	80 93 98 00 	sts	0x0098, r24	; 0x800098 <__DATA_REGION_ORIGIN__+0x38>
		
		
		
	}
	if (ADC_res < 512)
    26b4:	80 91 be 01 	lds	r24, 0x01BE	; 0x8001be <ADC_res>
    26b8:	90 91 bf 01 	lds	r25, 0x01BF	; 0x8001bf <ADC_res+0x1>
    26bc:	81 15       	cp	r24, r1
    26be:	92 40       	sbci	r25, 0x02	; 2
    26c0:	54 f4       	brge	.+20     	; 0x26d6 <__vector_21+0x6e>
	{	
		OCR4A=500;	
    26c2:	84 ef       	ldi	r24, 0xF4	; 244
    26c4:	91 e0       	ldi	r25, 0x01	; 1
    26c6:	90 93 a9 00 	sts	0x00A9, r25	; 0x8000a9 <__DATA_REGION_ORIGIN__+0x49>
    26ca:	80 93 a8 00 	sts	0x00A8, r24	; 0x8000a8 <__DATA_REGION_ORIGIN__+0x48>
		OCR3A=0;	
    26ce:	10 92 99 00 	sts	0x0099, r1	; 0x800099 <__DATA_REGION_ORIGIN__+0x39>
    26d2:	10 92 98 00 	sts	0x0098, r1	; 0x800098 <__DATA_REGION_ORIGIN__+0x38>
	}
	
	startConversion();
    26d6:	0e 94 c6 0c 	call	0x198c	; 0x198c <startConversion>
    26da:	ff 91       	pop	r31
    26dc:	ef 91       	pop	r30
    26de:	bf 91       	pop	r27
    26e0:	af 91       	pop	r26
    26e2:	9f 91       	pop	r25
    26e4:	8f 91       	pop	r24
    26e6:	7f 91       	pop	r23
    26e8:	6f 91       	pop	r22
    26ea:	5f 91       	pop	r21
    26ec:	4f 91       	pop	r20
    26ee:	3f 91       	pop	r19
    26f0:	2f 91       	pop	r18
    26f2:	0f 90       	pop	r0
    26f4:	0f be       	out	0x3f, r0	; 63
    26f6:	0f 90       	pop	r0
    26f8:	1f 90       	pop	r1
    26fa:	18 95       	reti

000026fc <init_IO>:
}

char is_BTN_Released(char BTN_pin_number)
{
	return (PIND & (1<<BTN_pin_number));
}
    26fc:	8b b1       	in	r24, 0x0b	; 11
    26fe:	8c 63       	ori	r24, 0x3C	; 60
    2700:	8b b9       	out	0x0b, r24	; 11
    2702:	8a b1       	in	r24, 0x0a	; 10
    2704:	83 7c       	andi	r24, 0xC3	; 195
    2706:	8a b9       	out	0x0a, r24	; 10
    2708:	1e b8       	out	0x0e, r1	; 14
    270a:	8f e0       	ldi	r24, 0x0F	; 15
    270c:	8d b9       	out	0x0d, r24	; 13
    270e:	08 95       	ret

00002710 <KBD_Read>:

char KBD_Read()
{    int nova;
static int stara;
    nova =(PIND>>2) & 0x0F; // Vzame portD in ga primerja z masko
    2710:	89 b1       	in	r24, 0x09	; 9
    2712:	86 95       	lsr	r24
    2714:	86 95       	lsr	r24
    2716:	8f 70       	andi	r24, 0x0F	; 15
    2718:	90 e0       	ldi	r25, 0x00	; 0
    if (((nova ^ stara) & stara) & 0x01)
    271a:	ac 01       	movw	r20, r24
    271c:	40 95       	com	r20
    271e:	50 95       	com	r21
    2720:	20 91 b8 01 	lds	r18, 0x01B8	; 0x8001b8 <__data_end>
    2724:	30 91 b9 01 	lds	r19, 0x01B9	; 0x8001b9 <__data_end+0x1>
    2728:	24 23       	and	r18, r20
    272a:	35 23       	and	r19, r21
    272c:	20 ff       	sbrs	r18, 0
    272e:	06 c0       	rjmp	.+12     	; 0x273c <KBD_Read+0x2c>
     tmp=BTN_ESC;			
    2730:	42 e0       	ldi	r20, 0x02	; 2
    2732:	50 e0       	ldi	r21, 0x00	; 0
    2734:	50 93 bb 01 	sts	0x01BB, r21	; 0x8001bb <tmp+0x1>
    2738:	40 93 ba 01 	sts	0x01BA, r20	; 0x8001ba <tmp>
	if (((nova ^ stara) & stara) & 0x02)
    273c:	21 ff       	sbrs	r18, 1
    273e:	06 c0       	rjmp	.+12     	; 0x274c <KBD_Read+0x3c>
     tmp=BTN_OK;			
    2740:	43 e0       	ldi	r20, 0x03	; 3
    2742:	50 e0       	ldi	r21, 0x00	; 0
    2744:	50 93 bb 01 	sts	0x01BB, r21	; 0x8001bb <tmp+0x1>
    2748:	40 93 ba 01 	sts	0x01BA, r20	; 0x8001ba <tmp>
	if (((nova ^ stara) & stara) & 0x04) 
    274c:	22 ff       	sbrs	r18, 2
    274e:	06 c0       	rjmp	.+12     	; 0x275c <KBD_Read+0x4c>
    tmp=BTN_A;			
    2750:	44 e0       	ldi	r20, 0x04	; 4
    2752:	50 e0       	ldi	r21, 0x00	; 0
    2754:	50 93 bb 01 	sts	0x01BB, r21	; 0x8001bb <tmp+0x1>
    2758:	40 93 ba 01 	sts	0x01BA, r20	; 0x8001ba <tmp>
	if (((nova ^ stara) & stara) & 0x08) 
    275c:	23 ff       	sbrs	r18, 3
    275e:	06 c0       	rjmp	.+12     	; 0x276c <KBD_Read+0x5c>
    tmp=BTN_B;
    2760:	25 e0       	ldi	r18, 0x05	; 5
    2762:	30 e0       	ldi	r19, 0x00	; 0
    2764:	30 93 bb 01 	sts	0x01BB, r19	; 0x8001bb <tmp+0x1>
    2768:	20 93 ba 01 	sts	0x01BA, r18	; 0x8001ba <tmp>
  stara = nova;
    276c:	90 93 b9 01 	sts	0x01B9, r25	; 0x8001b9 <__data_end+0x1>
    2770:	80 93 b8 01 	sts	0x01B8, r24	; 0x8001b8 <__data_end>
}
    2774:	08 95       	ret

00002776 <KBD_GetKey>:
char KBD_GetKey()
{   int vr;
    vr = tmp;
    2776:	80 91 ba 01 	lds	r24, 0x01BA	; 0x8001ba <tmp>
    tmp = 0;
    277a:	10 92 bb 01 	sts	0x01BB, r1	; 0x8001bb <tmp+0x1>
    277e:	10 92 ba 01 	sts	0x01BA, r1	; 0x8001ba <tmp>
    return vr;
}
    2782:	08 95       	ret

00002784 <init_PWM_IO>:

void init_PWM_IO()
{
	//PD1 - OC4A and PD2 - OC4B
	
	PORTD &= 0xFC;
    2784:	8b b1       	in	r24, 0x0b	; 11
    2786:	8c 7f       	andi	r24, 0xFC	; 252
    2788:	8b b9       	out	0x0b, r24	; 11
	DDRD |= (1 << PORTD0); //Output D1 - OCR3A is connected to it
    278a:	50 9a       	sbi	0x0a, 0	; 10
	DDRD |= (1 << PORTD1); //Output D2 - OCR4A is connected to it
    278c:	51 9a       	sbi	0x0a, 1	; 10
    278e:	08 95       	ret

00002790 <init_PWM_CH1>:


void init_PWM_CH1()
{
	
	TCCR4A |= (1 << COM4A1) | (1 << COM4B1) | (0 << COM4A0) | (0 << COM4B0);
    2790:	e0 ea       	ldi	r30, 0xA0	; 160
    2792:	f0 e0       	ldi	r31, 0x00	; 0
    2794:	80 81       	ld	r24, Z
    2796:	80 6a       	ori	r24, 0xA0	; 160
    2798:	80 83       	st	Z, r24
	TCCR4A |= (1 << WGM41) | (1 << WGM40);
    279a:	80 81       	ld	r24, Z
    279c:	83 60       	ori	r24, 0x03	; 3
    279e:	80 83       	st	Z, r24
	TCCR4B |= (0 << WGM43) | (0 << WGM42);
    27a0:	e1 ea       	ldi	r30, 0xA1	; 161
    27a2:	f0 e0       	ldi	r31, 0x00	; 0
    27a4:	80 81       	ld	r24, Z
    27a6:	80 83       	st	Z, r24
	TCCR4B = (0 << ICNC4) | (0 << ICES4);
    27a8:	10 82       	st	Z, r1
	TCCR4B |= (1 << CS41); //Prescaler /8
    27aa:	80 81       	ld	r24, Z
    27ac:	82 60       	ori	r24, 0x02	; 2
    27ae:	80 83       	st	Z, r24
    27b0:	08 95       	ret

000027b2 <init_PWM_CH2>:
}
void init_PWM_CH2()
{
	TCCR3A |= (1 << COM3A1) | (1 << COM3B1) | (0 << COM3A0) | (0 << COM3B0);
    27b2:	e0 e9       	ldi	r30, 0x90	; 144
    27b4:	f0 e0       	ldi	r31, 0x00	; 0
    27b6:	80 81       	ld	r24, Z
    27b8:	80 6a       	ori	r24, 0xA0	; 160
    27ba:	80 83       	st	Z, r24
	TCCR3A |= (1 << WGM31) | (1 << WGM30);
    27bc:	80 81       	ld	r24, Z
    27be:	83 60       	ori	r24, 0x03	; 3
    27c0:	80 83       	st	Z, r24
	TCCR3B |= (0 << WGM33) | (0 << WGM32);
    27c2:	e1 e9       	ldi	r30, 0x91	; 145
    27c4:	f0 e0       	ldi	r31, 0x00	; 0
    27c6:	80 81       	ld	r24, Z
    27c8:	80 83       	st	Z, r24
	TCCR3B = (0 << ICNC3) | (0 << ICES3);
    27ca:	10 82       	st	Z, r1
	TCCR3B |= (1 << CS31); //Prescaler /8
    27cc:	80 81       	ld	r24, Z
    27ce:	82 60       	ori	r24, 0x02	; 2
    27d0:	80 83       	st	Z, r24
    27d2:	08 95       	ret

000027d4 <disable_PWM>:
}

void disable_PWM()
{
	TCCR4B |= (0 << CS42) | (0 << CS41) | (0 << CS40); //Disconnect the clock source
    27d4:	e1 ea       	ldi	r30, 0xA1	; 161
    27d6:	f0 e0       	ldi	r31, 0x00	; 0
    27d8:	80 81       	ld	r24, Z
    27da:	80 83       	st	Z, r24
    27dc:	08 95       	ret

000027de <init_PWM>:
}

void init_PWM()
{
	init_PWM_IO();
    27de:	0e 94 c2 13 	call	0x2784	; 0x2784 <init_PWM_IO>
	init_PWM_CH1();
    27e2:	0e 94 c8 13 	call	0x2790	; 0x2790 <init_PWM_CH1>
	init_PWM_CH2();
    27e6:	0e 94 d9 13 	call	0x27b2	; 0x27b2 <init_PWM_CH2>
    27ea:	08 95       	ret

000027ec <__vector_14>:
#include "systime.h"
volatile uint8_t TIME_STATUS;
volatile uint32_t systick;

ISR(TIMER0_COMPA_vect)
{
    27ec:	1f 92       	push	r1
    27ee:	0f 92       	push	r0
    27f0:	0f b6       	in	r0, 0x3f	; 63
    27f2:	0f 92       	push	r0
    27f4:	11 24       	eor	r1, r1
    27f6:	8f 93       	push	r24
    27f8:	9f 93       	push	r25
    27fa:	af 93       	push	r26
    27fc:	bf 93       	push	r27
	systick++;
    27fe:	80 91 0d 02 	lds	r24, 0x020D	; 0x80020d <systick>
    2802:	90 91 0e 02 	lds	r25, 0x020E	; 0x80020e <systick+0x1>
    2806:	a0 91 0f 02 	lds	r26, 0x020F	; 0x80020f <systick+0x2>
    280a:	b0 91 10 02 	lds	r27, 0x0210	; 0x800210 <systick+0x3>
    280e:	01 96       	adiw	r24, 0x01	; 1
    2810:	a1 1d       	adc	r26, r1
    2812:	b1 1d       	adc	r27, r1
    2814:	80 93 0d 02 	sts	0x020D, r24	; 0x80020d <systick>
    2818:	90 93 0e 02 	sts	0x020E, r25	; 0x80020e <systick+0x1>
    281c:	a0 93 0f 02 	sts	0x020F, r26	; 0x80020f <systick+0x2>
    2820:	b0 93 10 02 	sts	0x0210, r27	; 0x800210 <systick+0x3>
	TIME_STATUS |= (1<<F1ms);	//SetF1ms()
    2824:	80 91 0c 02 	lds	r24, 0x020C	; 0x80020c <TIME_STATUS>
    2828:	81 60       	ori	r24, 0x01	; 1
    282a:	80 93 0c 02 	sts	0x020C, r24	; 0x80020c <TIME_STATUS>
}
    282e:	bf 91       	pop	r27
    2830:	af 91       	pop	r26
    2832:	9f 91       	pop	r25
    2834:	8f 91       	pop	r24
    2836:	0f 90       	pop	r0
    2838:	0f be       	out	0x3f, r0	; 63
    283a:	0f 90       	pop	r0
    283c:	1f 90       	pop	r1
    283e:	18 95       	reti

00002840 <init_TH>:
#include "Globals.h"

void init_TH()
{
	//Timer1 is in charge of keeping track of time remaining for the fermentation process 
	TCCR1A |= (1 << WGM12); // Enables Timer1 to run in CTC mode
    2840:	e0 e8       	ldi	r30, 0x80	; 128
    2842:	f0 e0       	ldi	r31, 0x00	; 0
    2844:	80 81       	ld	r24, Z
    2846:	88 60       	ori	r24, 0x08	; 8
    2848:	80 83       	st	Z, r24
	OCR1A = 62500; // Number of ticks required to have timer keep track of time in seconds
    284a:	84 e2       	ldi	r24, 0x24	; 36
    284c:	94 ef       	ldi	r25, 0xF4	; 244
    284e:	90 93 89 00 	sts	0x0089, r25	; 0x800089 <__DATA_REGION_ORIGIN__+0x29>
    2852:	80 93 88 00 	sts	0x0088, r24	; 0x800088 <__DATA_REGION_ORIGIN__+0x28>
	TCCR1A 	|= (0 << COM1A1) | (0 << COM1A0); //Sets normal port operation, OC1A disconnected
    2856:	80 81       	ld	r24, Z
    2858:	80 83       	st	Z, r24
	//OC1A is disconnected since TH doesn't require an external output
	TCCR1B |= (1 << CS12); // Sets the pre-scaler to /256
    285a:	e1 e8       	ldi	r30, 0x81	; 129
    285c:	f0 e0       	ldi	r31, 0x00	; 0
    285e:	80 81       	ld	r24, Z
    2860:	84 60       	ori	r24, 0x04	; 4
    2862:	80 83       	st	Z, r24
	TIMSK1 |= (1 << OCIE1A); // Enables the output compare A
    2864:	ef e6       	ldi	r30, 0x6F	; 111
    2866:	f0 e0       	ldi	r31, 0x00	; 0
    2868:	80 81       	ld	r24, Z
    286a:	82 60       	ori	r24, 0x02	; 2
    286c:	80 83       	st	Z, r24
    286e:	08 95       	ret

00002870 <disable_TH>:
}

void disable_TH()
{
	TCCR1B = (0 << CS12) | (0 << CS11) | (0 << CS10); //Sets clock source to none effectively disabling timer1
    2870:	10 92 81 00 	sts	0x0081, r1	; 0x800081 <__DATA_REGION_ORIGIN__+0x21>
    2874:	08 95       	ret

00002876 <convertToRealTime>:
}

void convertToRealTime()
{
	globalTime = days * 86400;
    2876:	a0 91 c0 01 	lds	r26, 0x01C0	; 0x8001c0 <days>
    287a:	b0 91 c1 01 	lds	r27, 0x01C1	; 0x8001c1 <days+0x1>
    287e:	20 e8       	ldi	r18, 0x80	; 128
    2880:	31 e5       	ldi	r19, 0x51	; 81
    2882:	41 e0       	ldi	r20, 0x01	; 1
    2884:	50 e0       	ldi	r21, 0x00	; 0
    2886:	0e 94 d6 1a 	call	0x35ac	; 0x35ac <__mulshisi3>
    288a:	60 93 c4 01 	sts	0x01C4, r22	; 0x8001c4 <globalTime>
    288e:	70 93 c5 01 	sts	0x01C5, r23	; 0x8001c5 <globalTime+0x1>
    2892:	80 93 c6 01 	sts	0x01C6, r24	; 0x8001c6 <globalTime+0x2>
    2896:	90 93 c7 01 	sts	0x01C7, r25	; 0x8001c7 <globalTime+0x3>
    289a:	08 95       	ret

0000289c <UG_Init>:
	msg.id = obj->type;
	msg.sub_id = obj->id;
	msg.src = obj;

	wnd->cb(&msg);
}
    289c:	fc 01       	movw	r30, r24
    289e:	71 83       	std	Z+1, r23	; 0x01
    28a0:	60 83       	st	Z, r22
    28a2:	53 83       	std	Z+3, r21	; 0x03
    28a4:	42 83       	std	Z+2, r20	; 0x02
    28a6:	35 83       	std	Z+5, r19	; 0x05
    28a8:	24 83       	std	Z+4, r18	; 0x04
    28aa:	84 e0       	ldi	r24, 0x04	; 4
    28ac:	90 e0       	ldi	r25, 0x00	; 0
    28ae:	96 8b       	std	Z+22, r25	; 0x16
    28b0:	85 8b       	std	Z+21, r24	; 0x15
    28b2:	90 8f       	std	Z+24, r25	; 0x18
    28b4:	87 8b       	std	Z+23, r24	; 0x17
    28b6:	45 50       	subi	r20, 0x05	; 5
    28b8:	51 09       	sbc	r21, r1
    28ba:	52 8f       	std	Z+26, r21	; 0x1a
    28bc:	41 8f       	std	Z+25, r20	; 0x19
    28be:	25 50       	subi	r18, 0x05	; 5
    28c0:	31 09       	sbc	r19, r1
    28c2:	34 8f       	std	Z+28, r19	; 0x1c
    28c4:	23 8f       	std	Z+27, r18	; 0x1b
    28c6:	52 8b       	std	Z+18, r21	; 0x12
    28c8:	41 8b       	std	Z+17, r20	; 0x11
    28ca:	34 8b       	std	Z+20, r19	; 0x14
    28cc:	23 8b       	std	Z+19, r18	; 0x13
    28ce:	81 e0       	ldi	r24, 0x01	; 1
    28d0:	86 a7       	std	Z+46, r24	; 0x2e
    28d2:	87 a7       	std	Z+47, r24	; 0x2f
    28d4:	12 a2       	std	Z+34, r1	; 0x22
    28d6:	11 a2       	std	Z+33, r1	; 0x21
    28d8:	17 a2       	std	Z+39, r1	; 0x27
    28da:	16 a2       	std	Z+38, r1	; 0x26
    28dc:	15 a2       	std	Z+37, r1	; 0x25
    28de:	14 a2       	std	Z+36, r1	; 0x24
    28e0:	11 a6       	std	Z+41, r1	; 0x29
    28e2:	10 a6       	std	Z+40, r1	; 0x28
    28e4:	13 a6       	std	Z+43, r1	; 0x2b
    28e6:	12 a6       	std	Z+42, r1	; 0x2a
    28e8:	15 a6       	std	Z+45, r1	; 0x2d
    28ea:	14 a6       	std	Z+44, r1	; 0x2c
    28ec:	8d e5       	ldi	r24, 0x5D	; 93
    28ee:	9c e5       	ldi	r25, 0x5C	; 92
    28f0:	95 ab       	std	Z+53, r25	; 0x35
    28f2:	84 ab       	std	Z+52, r24	; 0x34
    28f4:	8f ef       	ldi	r24, 0xFF	; 255
    28f6:	9f ef       	ldi	r25, 0xFF	; 255
    28f8:	91 ab       	std	Z+49, r25	; 0x31
    28fa:	80 ab       	std	Z+48, r24	; 0x30
    28fc:	13 aa       	std	Z+51, r1	; 0x33
    28fe:	12 aa       	std	Z+50, r1	; 0x32
    2900:	14 86       	std	Z+12, r1	; 0x0c
    2902:	13 86       	std	Z+11, r1	; 0x0b
    2904:	16 86       	std	Z+14, r1	; 0x0e
    2906:	15 86       	std	Z+13, r1	; 0x0d
    2908:	10 8a       	std	Z+16, r1	; 0x10
    290a:	17 86       	std	Z+15, r1	; 0x0f
    290c:	10 ae       	std	Z+56, r1	; 0x38
    290e:	17 aa       	std	Z+55, r1	; 0x37
    2910:	11 ae       	std	Z+57, r1	; 0x39
    2912:	13 ae       	std	Z+59, r1	; 0x3b
    2914:	12 ae       	std	Z+58, r1	; 0x3a
    2916:	14 ae       	std	Z+60, r1	; 0x3c
    2918:	16 ae       	std	Z+62, r1	; 0x3e
    291a:	15 ae       	std	Z+61, r1	; 0x3d
    291c:	17 ae       	std	Z+63, r1	; 0x3f
    291e:	df 01       	movw	r26, r30
    2920:	a0 5c       	subi	r26, 0xC0	; 192
    2922:	bf 4f       	sbci	r27, 0xFF	; 255
    2924:	11 96       	adiw	r26, 0x01	; 1
    2926:	1c 92       	st	X, r1
    2928:	1e 92       	st	-X, r1
    292a:	12 96       	adiw	r26, 0x02	; 2
    292c:	1c 92       	st	X, r1
    292e:	f0 93 bd 01 	sts	0x01BD, r31	; 0x8001bd <gui+0x1>
    2932:	e0 93 bc 01 	sts	0x01BC, r30	; 0x8001bc <gui>
    2936:	81 e0       	ldi	r24, 0x01	; 1
    2938:	90 e0       	ldi	r25, 0x00	; 0
    293a:	08 95       	ret

0000293c <UG_FontSelect>:
    293c:	fc 01       	movw	r30, r24
    293e:	a0 91 bc 01 	lds	r26, 0x01BC	; 0x8001bc <gui>
    2942:	b0 91 bd 01 	lds	r27, 0x01BD	; 0x8001bd <gui+0x1>
    2946:	9d e0       	ldi	r25, 0x0D	; 13
    2948:	91 96       	adiw	r26, 0x21	; 33
    294a:	01 90       	ld	r0, Z+
    294c:	0d 92       	st	X+, r0
    294e:	9a 95       	dec	r25
    2950:	e1 f7       	brne	.-8      	; 0x294a <UG_FontSelect+0xe>
    2952:	08 95       	ret

00002954 <UG_FillFrame>:
    2954:	8f 92       	push	r8
    2956:	9f 92       	push	r9
    2958:	af 92       	push	r10
    295a:	bf 92       	push	r11
    295c:	cf 92       	push	r12
    295e:	df 92       	push	r13
    2960:	ef 92       	push	r14
    2962:	ff 92       	push	r15
    2964:	0f 93       	push	r16
    2966:	1f 93       	push	r17
    2968:	cf 93       	push	r28
    296a:	df 93       	push	r29
    296c:	5c 01       	movw	r10, r24
    296e:	eb 01       	movw	r28, r22
    2970:	7a 01       	movw	r14, r20
    2972:	49 01       	movw	r8, r18
    2974:	68 01       	movw	r12, r16
    2976:	48 17       	cp	r20, r24
    2978:	59 07       	cpc	r21, r25
    297a:	2c f4       	brge	.+10     	; 0x2986 <UG_FillFrame+0x32>
    297c:	98 2f       	mov	r25, r24
    297e:	8b 2d       	mov	r24, r11
    2980:	5a 01       	movw	r10, r20
    2982:	e9 2e       	mov	r14, r25
    2984:	f8 2e       	mov	r15, r24
    2986:	8c 16       	cp	r8, r28
    2988:	9d 06       	cpc	r9, r29
    298a:	7c f5       	brge	.+94     	; 0x29ea <UG_FillFrame+0x96>
    298c:	9c 2f       	mov	r25, r28
    298e:	8d 2f       	mov	r24, r29
    2990:	e4 01       	movw	r28, r8
    2992:	89 2e       	mov	r8, r25
    2994:	98 2e       	mov	r9, r24
    2996:	29 c0       	rjmp	.+82     	; 0x29ea <UG_FillFrame+0x96>
    2998:	8c 16       	cp	r8, r28
    299a:	9d 06       	cpc	r9, r29
    299c:	14 f5       	brge	.+68     	; 0x29e2 <UG_FillFrame+0x8e>
    299e:	2d c0       	rjmp	.+90     	; 0x29fa <UG_FillFrame+0xa6>
    29a0:	02 ac       	ldd	r0, Z+58	; 0x3a
    29a2:	f3 ad       	ldd	r31, Z+59	; 0x3b
    29a4:	e0 2d       	mov	r30, r0
    29a6:	86 01       	movw	r16, r12
    29a8:	94 01       	movw	r18, r8
    29aa:	a7 01       	movw	r20, r14
    29ac:	be 01       	movw	r22, r28
    29ae:	c5 01       	movw	r24, r10
    29b0:	09 95       	icall
    29b2:	81 11       	cpse	r24, r1
    29b4:	f1 cf       	rjmp	.-30     	; 0x2998 <UG_FillFrame+0x44>
    29b6:	21 c0       	rjmp	.+66     	; 0x29fa <UG_FillFrame+0xa6>
    29b8:	85 01       	movw	r16, r10
    29ba:	e0 91 bc 01 	lds	r30, 0x01BC	; 0x8001bc <gui>
    29be:	f0 91 bd 01 	lds	r31, 0x01BD	; 0x8001bd <gui+0x1>
    29c2:	01 90       	ld	r0, Z+
    29c4:	f0 81       	ld	r31, Z
    29c6:	e0 2d       	mov	r30, r0
    29c8:	a6 01       	movw	r20, r12
    29ca:	be 01       	movw	r22, r28
    29cc:	c8 01       	movw	r24, r16
    29ce:	09 95       	icall
    29d0:	0f 5f       	subi	r16, 0xFF	; 255
    29d2:	1f 4f       	sbci	r17, 0xFF	; 255
    29d4:	e0 16       	cp	r14, r16
    29d6:	f1 06       	cpc	r15, r17
    29d8:	84 f7       	brge	.-32     	; 0x29ba <UG_FillFrame+0x66>
    29da:	21 96       	adiw	r28, 0x01	; 1
    29dc:	8c 16       	cp	r8, r28
    29de:	9d 06       	cpc	r9, r29
    29e0:	64 f0       	brlt	.+24     	; 0x29fa <UG_FillFrame+0xa6>
    29e2:	ea 14       	cp	r14, r10
    29e4:	fb 04       	cpc	r15, r11
    29e6:	44 f7       	brge	.-48     	; 0x29b8 <UG_FillFrame+0x64>
    29e8:	f8 cf       	rjmp	.-16     	; 0x29da <UG_FillFrame+0x86>
    29ea:	e0 91 bc 01 	lds	r30, 0x01BC	; 0x8001bc <gui>
    29ee:	f0 91 bd 01 	lds	r31, 0x01BD	; 0x8001bd <gui+0x1>
    29f2:	84 ad       	ldd	r24, Z+60	; 0x3c
    29f4:	81 ff       	sbrs	r24, 1
    29f6:	f5 cf       	rjmp	.-22     	; 0x29e2 <UG_FillFrame+0x8e>
    29f8:	d3 cf       	rjmp	.-90     	; 0x29a0 <UG_FillFrame+0x4c>
    29fa:	df 91       	pop	r29
    29fc:	cf 91       	pop	r28
    29fe:	1f 91       	pop	r17
    2a00:	0f 91       	pop	r16
    2a02:	ff 90       	pop	r15
    2a04:	ef 90       	pop	r14
    2a06:	df 90       	pop	r13
    2a08:	cf 90       	pop	r12
    2a0a:	bf 90       	pop	r11
    2a0c:	af 90       	pop	r10
    2a0e:	9f 90       	pop	r9
    2a10:	8f 90       	pop	r8
    2a12:	08 95       	ret

00002a14 <UG_DrawLine>:
    2a14:	2f 92       	push	r2
    2a16:	3f 92       	push	r3
    2a18:	4f 92       	push	r4
    2a1a:	5f 92       	push	r5
    2a1c:	6f 92       	push	r6
    2a1e:	7f 92       	push	r7
    2a20:	8f 92       	push	r8
    2a22:	9f 92       	push	r9
    2a24:	af 92       	push	r10
    2a26:	bf 92       	push	r11
    2a28:	cf 92       	push	r12
    2a2a:	df 92       	push	r13
    2a2c:	ef 92       	push	r14
    2a2e:	ff 92       	push	r15
    2a30:	0f 93       	push	r16
    2a32:	1f 93       	push	r17
    2a34:	cf 93       	push	r28
    2a36:	df 93       	push	r29
    2a38:	ec 01       	movw	r28, r24
    2a3a:	7b 01       	movw	r14, r22
    2a3c:	5a 01       	movw	r10, r20
    2a3e:	69 01       	movw	r12, r18
    2a40:	18 01       	movw	r2, r16
    2a42:	e0 91 bc 01 	lds	r30, 0x01BC	; 0x8001bc <gui>
    2a46:	f0 91 bd 01 	lds	r31, 0x01BD	; 0x8001bd <gui+0x1>
    2a4a:	81 ad       	ldd	r24, Z+57	; 0x39
    2a4c:	81 ff       	sbrs	r24, 1
    2a4e:	08 c0       	rjmp	.+16     	; 0x2a60 <UG_DrawLine+0x4c>
    2a50:	07 a8       	ldd	r0, Z+55	; 0x37
    2a52:	f0 ad       	ldd	r31, Z+56	; 0x38
    2a54:	e0 2d       	mov	r30, r0
    2a56:	ce 01       	movw	r24, r28
    2a58:	09 95       	icall
    2a5a:	88 23       	and	r24, r24
    2a5c:	09 f4       	brne	.+2      	; 0x2a60 <UG_DrawLine+0x4c>
    2a5e:	81 c0       	rjmp	.+258    	; 0x2b62 <UG_DrawLine+0x14e>
    2a60:	a5 01       	movw	r20, r10
    2a62:	4c 1b       	sub	r20, r28
    2a64:	5d 0b       	sbc	r21, r29
    2a66:	96 01       	movw	r18, r12
    2a68:	2e 19       	sub	r18, r14
    2a6a:	3f 09       	sbc	r19, r15
    2a6c:	6a 01       	movw	r12, r20
    2a6e:	55 23       	and	r21, r21
    2a70:	24 f4       	brge	.+8      	; 0x2a7a <UG_DrawLine+0x66>
    2a72:	cc 24       	eor	r12, r12
    2a74:	dd 24       	eor	r13, r13
    2a76:	c4 1a       	sub	r12, r20
    2a78:	d5 0a       	sbc	r13, r21
    2a7a:	89 01       	movw	r16, r18
    2a7c:	33 23       	and	r19, r19
    2a7e:	24 f4       	brge	.+8      	; 0x2a88 <UG_DrawLine+0x74>
    2a80:	00 27       	eor	r16, r16
    2a82:	11 27       	eor	r17, r17
    2a84:	02 1b       	sub	r16, r18
    2a86:	13 0b       	sbc	r17, r19
    2a88:	14 16       	cp	r1, r20
    2a8a:	15 06       	cpc	r1, r21
    2a8c:	24 f0       	brlt	.+8      	; 0x2a96 <UG_DrawLine+0x82>
    2a8e:	66 24       	eor	r6, r6
    2a90:	6a 94       	dec	r6
    2a92:	76 2c       	mov	r7, r6
    2a94:	03 c0       	rjmp	.+6      	; 0x2a9c <UG_DrawLine+0x88>
    2a96:	66 24       	eor	r6, r6
    2a98:	63 94       	inc	r6
    2a9a:	71 2c       	mov	r7, r1
    2a9c:	12 16       	cp	r1, r18
    2a9e:	13 06       	cpc	r1, r19
    2aa0:	24 f0       	brlt	.+8      	; 0x2aaa <UG_DrawLine+0x96>
    2aa2:	88 24       	eor	r8, r8
    2aa4:	8a 94       	dec	r8
    2aa6:	98 2c       	mov	r9, r8
    2aa8:	03 c0       	rjmp	.+6      	; 0x2ab0 <UG_DrawLine+0x9c>
    2aaa:	88 24       	eor	r8, r8
    2aac:	83 94       	inc	r8
    2aae:	91 2c       	mov	r9, r1
    2ab0:	e0 91 bc 01 	lds	r30, 0x01BC	; 0x8001bc <gui>
    2ab4:	f0 91 bd 01 	lds	r31, 0x01BD	; 0x8001bd <gui+0x1>
    2ab8:	01 90       	ld	r0, Z+
    2aba:	f0 81       	ld	r31, Z
    2abc:	e0 2d       	mov	r30, r0
    2abe:	a1 01       	movw	r20, r2
    2ac0:	b7 01       	movw	r22, r14
    2ac2:	ce 01       	movw	r24, r28
    2ac4:	09 95       	icall
    2ac6:	c0 16       	cp	r12, r16
    2ac8:	d1 06       	cpc	r13, r17
    2aca:	24 f4       	brge	.+8      	; 0x2ad4 <UG_DrawLine+0xc0>
    2acc:	10 16       	cp	r1, r16
    2ace:	11 06       	cpc	r1, r17
    2ad0:	3c f1       	brlt	.+78     	; 0x2b20 <UG_DrawLine+0x10c>
    2ad2:	47 c0       	rjmp	.+142    	; 0x2b62 <UG_DrawLine+0x14e>
    2ad4:	1c 14       	cp	r1, r12
    2ad6:	1d 04       	cpc	r1, r13
    2ad8:	0c f0       	brlt	.+2      	; 0x2adc <UG_DrawLine+0xc8>
    2ada:	43 c0       	rjmp	.+134    	; 0x2b62 <UG_DrawLine+0x14e>
    2adc:	56 01       	movw	r10, r12
    2ade:	b5 94       	asr	r11
    2ae0:	a7 94       	ror	r10
    2ae2:	41 2c       	mov	r4, r1
    2ae4:	51 2c       	mov	r5, r1
    2ae6:	a0 0e       	add	r10, r16
    2ae8:	b1 1e       	adc	r11, r17
    2aea:	ac 14       	cp	r10, r12
    2aec:	bd 04       	cpc	r11, r13
    2aee:	24 f0       	brlt	.+8      	; 0x2af8 <UG_DrawLine+0xe4>
    2af0:	ac 18       	sub	r10, r12
    2af2:	bd 08       	sbc	r11, r13
    2af4:	e8 0c       	add	r14, r8
    2af6:	f9 1c       	adc	r15, r9
    2af8:	c6 0d       	add	r28, r6
    2afa:	d7 1d       	adc	r29, r7
    2afc:	e0 91 bc 01 	lds	r30, 0x01BC	; 0x8001bc <gui>
    2b00:	f0 91 bd 01 	lds	r31, 0x01BD	; 0x8001bd <gui+0x1>
    2b04:	01 90       	ld	r0, Z+
    2b06:	f0 81       	ld	r31, Z
    2b08:	e0 2d       	mov	r30, r0
    2b0a:	a1 01       	movw	r20, r2
    2b0c:	b7 01       	movw	r22, r14
    2b0e:	ce 01       	movw	r24, r28
    2b10:	09 95       	icall
    2b12:	8f ef       	ldi	r24, 0xFF	; 255
    2b14:	48 1a       	sub	r4, r24
    2b16:	58 0a       	sbc	r5, r24
    2b18:	c4 14       	cp	r12, r4
    2b1a:	d5 04       	cpc	r13, r5
    2b1c:	21 f7       	brne	.-56     	; 0x2ae6 <UG_DrawLine+0xd2>
    2b1e:	21 c0       	rjmp	.+66     	; 0x2b62 <UG_DrawLine+0x14e>
    2b20:	58 01       	movw	r10, r16
    2b22:	b5 94       	asr	r11
    2b24:	a7 94       	ror	r10
    2b26:	41 2c       	mov	r4, r1
    2b28:	51 2c       	mov	r5, r1
    2b2a:	ac 0c       	add	r10, r12
    2b2c:	bd 1c       	adc	r11, r13
    2b2e:	a0 16       	cp	r10, r16
    2b30:	b1 06       	cpc	r11, r17
    2b32:	24 f0       	brlt	.+8      	; 0x2b3c <UG_DrawLine+0x128>
    2b34:	a0 1a       	sub	r10, r16
    2b36:	b1 0a       	sbc	r11, r17
    2b38:	c6 0d       	add	r28, r6
    2b3a:	d7 1d       	adc	r29, r7
    2b3c:	e8 0c       	add	r14, r8
    2b3e:	f9 1c       	adc	r15, r9
    2b40:	e0 91 bc 01 	lds	r30, 0x01BC	; 0x8001bc <gui>
    2b44:	f0 91 bd 01 	lds	r31, 0x01BD	; 0x8001bd <gui+0x1>
    2b48:	01 90       	ld	r0, Z+
    2b4a:	f0 81       	ld	r31, Z
    2b4c:	e0 2d       	mov	r30, r0
    2b4e:	a1 01       	movw	r20, r2
    2b50:	b7 01       	movw	r22, r14
    2b52:	ce 01       	movw	r24, r28
    2b54:	09 95       	icall
    2b56:	8f ef       	ldi	r24, 0xFF	; 255
    2b58:	48 1a       	sub	r4, r24
    2b5a:	58 0a       	sbc	r5, r24
    2b5c:	04 15       	cp	r16, r4
    2b5e:	15 05       	cpc	r17, r5
    2b60:	21 f7       	brne	.-56     	; 0x2b2a <UG_DrawLine+0x116>
    2b62:	df 91       	pop	r29
    2b64:	cf 91       	pop	r28
    2b66:	1f 91       	pop	r17
    2b68:	0f 91       	pop	r16
    2b6a:	ff 90       	pop	r15
    2b6c:	ef 90       	pop	r14
    2b6e:	df 90       	pop	r13
    2b70:	cf 90       	pop	r12
    2b72:	bf 90       	pop	r11
    2b74:	af 90       	pop	r10
    2b76:	9f 90       	pop	r9
    2b78:	8f 90       	pop	r8
    2b7a:	7f 90       	pop	r7
    2b7c:	6f 90       	pop	r6
    2b7e:	5f 90       	pop	r5
    2b80:	4f 90       	pop	r4
    2b82:	3f 90       	pop	r3
    2b84:	2f 90       	pop	r2
    2b86:	08 95       	ret

00002b88 <UG_ConsoleSetArea>:
    2b88:	e0 91 bc 01 	lds	r30, 0x01BC	; 0x8001bc <gui>
    2b8c:	f0 91 bd 01 	lds	r31, 0x01BD	; 0x8001bd <gui+0x1>
    2b90:	96 8b       	std	Z+22, r25	; 0x16
    2b92:	85 8b       	std	Z+21, r24	; 0x15
    2b94:	70 8f       	std	Z+24, r23	; 0x18
    2b96:	67 8b       	std	Z+23, r22	; 0x17
    2b98:	52 8f       	std	Z+26, r21	; 0x1a
    2b9a:	41 8f       	std	Z+25, r20	; 0x19
    2b9c:	34 8f       	std	Z+28, r19	; 0x1c
    2b9e:	23 8f       	std	Z+27, r18	; 0x1b
    2ba0:	08 95       	ret

00002ba2 <UG_ConsoleSetForecolor>:
    2ba2:	e0 91 bc 01 	lds	r30, 0x01BC	; 0x8001bc <gui>
    2ba6:	f0 91 bd 01 	lds	r31, 0x01BD	; 0x8001bd <gui+0x1>
    2baa:	96 8f       	std	Z+30, r25	; 0x1e
    2bac:	85 8f       	std	Z+29, r24	; 0x1d
    2bae:	08 95       	ret

00002bb0 <UG_ConsoleSetBackcolor>:
    2bb0:	e0 91 bc 01 	lds	r30, 0x01BC	; 0x8001bc <gui>
    2bb4:	f0 91 bd 01 	lds	r31, 0x01BD	; 0x8001bd <gui+0x1>
    2bb8:	90 a3       	std	Z+32, r25	; 0x20
    2bba:	87 8f       	std	Z+31, r24	; 0x1f
    2bbc:	08 95       	ret

00002bbe <UG_SetForecolor>:
    2bbe:	e0 91 bc 01 	lds	r30, 0x01BC	; 0x8001bc <gui>
    2bc2:	f0 91 bd 01 	lds	r31, 0x01BD	; 0x8001bd <gui+0x1>
    2bc6:	91 ab       	std	Z+49, r25	; 0x31
    2bc8:	80 ab       	std	Z+48, r24	; 0x30
    2bca:	08 95       	ret

00002bcc <UG_SetBackcolor>:
    2bcc:	e0 91 bc 01 	lds	r30, 0x01BC	; 0x8001bc <gui>
    2bd0:	f0 91 bd 01 	lds	r31, 0x01BD	; 0x8001bd <gui+0x1>
    2bd4:	93 ab       	std	Z+51, r25	; 0x33
    2bd6:	82 ab       	std	Z+50, r24	; 0x32
    2bd8:	08 95       	ret

00002bda <_UG_PutChar>:
    2bda:	2f 92       	push	r2
    2bdc:	3f 92       	push	r3
    2bde:	4f 92       	push	r4
    2be0:	5f 92       	push	r5
    2be2:	6f 92       	push	r6
    2be4:	7f 92       	push	r7
    2be6:	8f 92       	push	r8
    2be8:	9f 92       	push	r9
    2bea:	af 92       	push	r10
    2bec:	bf 92       	push	r11
    2bee:	cf 92       	push	r12
    2bf0:	df 92       	push	r13
    2bf2:	ef 92       	push	r14
    2bf4:	ff 92       	push	r15
    2bf6:	0f 93       	push	r16
    2bf8:	1f 93       	push	r17
    2bfa:	cf 93       	push	r28
    2bfc:	df 93       	push	r29
    2bfe:	cd b7       	in	r28, 0x3d	; 61
    2c00:	de b7       	in	r29, 0x3e	; 62
    2c02:	68 97       	sbiw	r28, 0x18	; 24
    2c04:	0f b6       	in	r0, 0x3f	; 63
    2c06:	f8 94       	cli
    2c08:	de bf       	out	0x3e, r29	; 62
    2c0a:	0f be       	out	0x3f, r0	; 63
    2c0c:	cd bf       	out	0x3d, r28	; 61
    2c0e:	78 8b       	std	Y+16, r23	; 0x10
    2c10:	6f 87       	std	Y+15, r22	; 0x0f
    2c12:	4a 01       	movw	r8, r20
    2c14:	69 01       	movw	r12, r18
    2c16:	38 01       	movw	r6, r16
    2c18:	17 01       	movw	r2, r14
    2c1a:	48 2f       	mov	r20, r24
    2c1c:	50 e0       	ldi	r21, 0x00	; 0
    2c1e:	fa 01       	movw	r30, r20
    2c20:	e0 5b       	subi	r30, 0xB0	; 176
    2c22:	f1 09       	sbc	r31, r1
    2c24:	ed 34       	cpi	r30, 0x4D	; 77
    2c26:	f1 05       	cpc	r31, r1
    2c28:	98 f4       	brcc	.+38     	; 0x2c50 <_UG_PutChar+0x76>
    2c2a:	e6 5a       	subi	r30, 0xA6	; 166
    2c2c:	ff 4f       	sbci	r31, 0xFF	; 255
    2c2e:	0c 94 b6 1a 	jmp	0x356c	; 0x356c <__tablejump2__>
    2c32:	84 e9       	ldi	r24, 0x94	; 148
    2c34:	0d c0       	rjmp	.+26     	; 0x2c50 <_UG_PutChar+0x76>
    2c36:	89 e9       	ldi	r24, 0x99	; 153
    2c38:	0b c0       	rjmp	.+22     	; 0x2c50 <_UG_PutChar+0x76>
    2c3a:	81 e8       	ldi	r24, 0x81	; 129
    2c3c:	09 c0       	rjmp	.+18     	; 0x2c50 <_UG_PutChar+0x76>
    2c3e:	8a e9       	ldi	r24, 0x9A	; 154
    2c40:	07 c0       	rjmp	.+14     	; 0x2c50 <_UG_PutChar+0x76>
    2c42:	84 e8       	ldi	r24, 0x84	; 132
    2c44:	05 c0       	rjmp	.+10     	; 0x2c50 <_UG_PutChar+0x76>
    2c46:	8e e8       	ldi	r24, 0x8E	; 142
    2c48:	03 c0       	rjmp	.+6      	; 0x2c50 <_UG_PutChar+0x76>
    2c4a:	86 ee       	ldi	r24, 0xE6	; 230
    2c4c:	01 c0       	rjmp	.+2      	; 0x2c50 <_UG_PutChar+0x76>
    2c4e:	88 ef       	ldi	r24, 0xF8	; 248
    2c50:	28 2f       	mov	r18, r24
    2c52:	30 e0       	ldi	r19, 0x00	; 0
    2c54:	3a 83       	std	Y+2, r19	; 0x02
    2c56:	29 83       	std	Y+1, r18	; 0x01
    2c58:	d1 01       	movw	r26, r2
    2c5a:	17 96       	adiw	r26, 0x07	; 7
    2c5c:	8d 91       	ld	r24, X+
    2c5e:	9c 91       	ld	r25, X
    2c60:	18 97       	sbiw	r26, 0x08	; 8
    2c62:	28 17       	cp	r18, r24
    2c64:	39 07       	cpc	r19, r25
    2c66:	08 f4       	brcc	.+2      	; 0x2c6a <_UG_PutChar+0x90>
    2c68:	01 c3       	rjmp	.+1538   	; 0x326c <_UG_PutChar+0x692>
    2c6a:	19 96       	adiw	r26, 0x09	; 9
    2c6c:	2d 91       	ld	r18, X+
    2c6e:	3c 91       	ld	r19, X
    2c70:	1a 97       	sbiw	r26, 0x0a	; 10
    2c72:	e9 81       	ldd	r30, Y+1	; 0x01
    2c74:	fa 81       	ldd	r31, Y+2	; 0x02
    2c76:	2e 17       	cp	r18, r30
    2c78:	3f 07       	cpc	r19, r31
    2c7a:	08 f4       	brcc	.+2      	; 0x2c7e <_UG_PutChar+0xa4>
    2c7c:	f7 c2       	rjmp	.+1518   	; 0x326c <_UG_PutChar+0x692>
    2c7e:	13 96       	adiw	r26, 0x03	; 3
    2c80:	2d 91       	ld	r18, X+
    2c82:	3c 91       	ld	r19, X
    2c84:	14 97       	sbiw	r26, 0x04	; 4
    2c86:	21 15       	cp	r18, r1
    2c88:	31 05       	cpc	r19, r1
    2c8a:	09 f4       	brne	.+2      	; 0x2c8e <_UG_PutChar+0xb4>
    2c8c:	ef c2       	rjmp	.+1502   	; 0x326c <_UG_PutChar+0x692>
    2c8e:	a9 01       	movw	r20, r18
    2c90:	56 95       	lsr	r21
    2c92:	47 95       	ror	r20
    2c94:	56 95       	lsr	r21
    2c96:	47 95       	ror	r20
    2c98:	56 95       	lsr	r21
    2c9a:	47 95       	ror	r20
    2c9c:	5e 87       	std	Y+14, r21	; 0x0e
    2c9e:	4d 87       	std	Y+13, r20	; 0x0d
    2ca0:	a9 01       	movw	r20, r18
    2ca2:	47 70       	andi	r20, 0x07	; 7
    2ca4:	55 27       	eor	r21, r21
    2ca6:	45 2b       	or	r20, r21
    2ca8:	31 f0       	breq	.+12     	; 0x2cb6 <_UG_PutChar+0xdc>
    2caa:	6d 85       	ldd	r22, Y+13	; 0x0d
    2cac:	7e 85       	ldd	r23, Y+14	; 0x0e
    2cae:	6f 5f       	subi	r22, 0xFF	; 255
    2cb0:	7f 4f       	sbci	r23, 0xFF	; 255
    2cb2:	7e 87       	std	Y+14, r23	; 0x0e
    2cb4:	6d 87       	std	Y+13, r22	; 0x0d
    2cb6:	d1 01       	movw	r26, r2
    2cb8:	1b 96       	adiw	r26, 0x0b	; 11
    2cba:	6d 91       	ld	r22, X+
    2cbc:	7c 91       	ld	r23, X
    2cbe:	1c 97       	sbiw	r26, 0x0c	; 12
    2cc0:	61 15       	cp	r22, r1
    2cc2:	71 05       	cpc	r23, r1
    2cc4:	69 f0       	breq	.+26     	; 0x2ce0 <_UG_PutChar+0x106>
    2cc6:	49 81       	ldd	r20, Y+1	; 0x01
    2cc8:	5a 81       	ldd	r21, Y+2	; 0x02
    2cca:	48 1b       	sub	r20, r24
    2ccc:	59 0b       	sbc	r21, r25
    2cce:	fb 01       	movw	r30, r22
    2cd0:	e4 0f       	add	r30, r20
    2cd2:	f5 1f       	adc	r31, r21
    2cd4:	40 81       	ld	r20, Z
    2cd6:	e4 2f       	mov	r30, r20
    2cd8:	f0 e0       	ldi	r31, 0x00	; 0
    2cda:	fa 8b       	std	Y+18, r31	; 0x12
    2cdc:	e9 8b       	std	Y+17, r30	; 0x11
    2cde:	02 c0       	rjmp	.+4      	; 0x2ce4 <_UG_PutChar+0x10a>
    2ce0:	3a 8b       	std	Y+18, r19	; 0x12
    2ce2:	29 8b       	std	Y+17, r18	; 0x11
    2ce4:	e0 91 bc 01 	lds	r30, 0x01BC	; 0x8001bc <gui>
    2ce8:	f0 91 bd 01 	lds	r31, 0x01BD	; 0x8001bd <gui+0x1>
    2cec:	47 ad       	ldd	r20, Z+63	; 0x3f
    2cee:	41 ff       	sbrs	r20, 1
    2cf0:	54 c1       	rjmp	.+680    	; 0x2f9a <_UG_PutChar+0x3c0>
    2cf2:	df 01       	movw	r26, r30
    2cf4:	ae 5b       	subi	r26, 0xBE	; 190
    2cf6:	bf 4f       	sbci	r27, 0xFF	; 255
    2cf8:	4c 91       	ld	r20, X
    2cfa:	41 ff       	sbrs	r20, 1
    2cfc:	4e c1       	rjmp	.+668    	; 0x2f9a <_UG_PutChar+0x3c0>
    2cfe:	d1 01       	movw	r26, r2
    2d00:	15 96       	adiw	r26, 0x05	; 5
    2d02:	2d 91       	ld	r18, X+
    2d04:	3c 91       	ld	r19, X
    2d06:	16 97       	sbiw	r26, 0x06	; 6
    2d08:	28 0d       	add	r18, r8
    2d0a:	39 1d       	adc	r19, r9
    2d0c:	21 50       	subi	r18, 0x01	; 1
    2d0e:	31 09       	sbc	r19, r1
    2d10:	4f 85       	ldd	r20, Y+15	; 0x0f
    2d12:	58 89       	ldd	r21, Y+16	; 0x10
    2d14:	41 50       	subi	r20, 0x01	; 1
    2d16:	51 09       	sbc	r21, r1
    2d18:	69 89       	ldd	r22, Y+17	; 0x11
    2d1a:	7a 89       	ldd	r23, Y+18	; 0x12
    2d1c:	46 0f       	add	r20, r22
    2d1e:	57 1f       	adc	r21, r23
    2d20:	05 ac       	ldd	r0, Z+61	; 0x3d
    2d22:	f6 ad       	ldd	r31, Z+62	; 0x3e
    2d24:	e0 2d       	mov	r30, r0
    2d26:	b4 01       	movw	r22, r8
    2d28:	8f 85       	ldd	r24, Y+15	; 0x0f
    2d2a:	98 89       	ldd	r25, Y+16	; 0x10
    2d2c:	09 95       	icall
    2d2e:	e0 91 bc 01 	lds	r30, 0x01BC	; 0x8001bc <gui>
    2d32:	f0 91 bd 01 	lds	r31, 0x01BD	; 0x8001bd <gui+0x1>
    2d36:	e0 5c       	subi	r30, 0xC0	; 192
    2d38:	ff 4f       	sbci	r31, 0xFF	; 255
    2d3a:	40 80       	ld	r4, Z
    2d3c:	51 80       	ldd	r5, Z+1	; 0x01
    2d3e:	d1 01       	movw	r26, r2
    2d40:	12 96       	adiw	r26, 0x02	; 2
    2d42:	8c 91       	ld	r24, X
    2d44:	12 97       	sbiw	r26, 0x02	; 2
    2d46:	81 11       	cpse	r24, r1
    2d48:	91 c0       	rjmp	.+290    	; 0x2e6c <_UG_PutChar+0x292>
    2d4a:	15 96       	adiw	r26, 0x05	; 5
    2d4c:	8d 91       	ld	r24, X+
    2d4e:	9c 91       	ld	r25, X
    2d50:	16 97       	sbiw	r26, 0x06	; 6
    2d52:	17 96       	adiw	r26, 0x07	; 7
    2d54:	2d 91       	ld	r18, X+
    2d56:	3c 91       	ld	r19, X
    2d58:	18 97       	sbiw	r26, 0x08	; 8
    2d5a:	e9 81       	ldd	r30, Y+1	; 0x01
    2d5c:	fa 81       	ldd	r31, Y+2	; 0x02
    2d5e:	e2 1b       	sub	r30, r18
    2d60:	f3 0b       	sbc	r31, r19
    2d62:	e8 9f       	mul	r30, r24
    2d64:	a0 01       	movw	r20, r0
    2d66:	e9 9f       	mul	r30, r25
    2d68:	50 0d       	add	r21, r0
    2d6a:	f8 9f       	mul	r31, r24
    2d6c:	50 0d       	add	r21, r0
    2d6e:	11 24       	eor	r1, r1
    2d70:	6d 85       	ldd	r22, Y+13	; 0x0d
    2d72:	7e 85       	ldd	r23, Y+14	; 0x0e
    2d74:	46 9f       	mul	r20, r22
    2d76:	90 01       	movw	r18, r0
    2d78:	47 9f       	mul	r20, r23
    2d7a:	30 0d       	add	r19, r0
    2d7c:	56 9f       	mul	r21, r22
    2d7e:	30 0d       	add	r19, r0
    2d80:	11 24       	eor	r1, r1
    2d82:	a9 01       	movw	r20, r18
    2d84:	60 e0       	ldi	r22, 0x00	; 0
    2d86:	70 e0       	ldi	r23, 0x00	; 0
    2d88:	49 83       	std	Y+1, r20	; 0x01
    2d8a:	5a 83       	std	Y+2, r21	; 0x02
    2d8c:	6b 83       	std	Y+3, r22	; 0x03
    2d8e:	7c 83       	std	Y+4, r23	; 0x04
    2d90:	89 2b       	or	r24, r25
    2d92:	09 f0       	breq	.+2      	; 0x2d96 <_UG_PutChar+0x1bc>
    2d94:	4b c0       	rjmp	.+150    	; 0x2e2c <_UG_PutChar+0x252>
    2d96:	6a c2       	rjmp	.+1236   	; 0x326c <_UG_PutChar+0x692>
    2d98:	d1 01       	movw	r26, r2
    2d9a:	ed 91       	ld	r30, X+
    2d9c:	fc 91       	ld	r31, X
    2d9e:	e0 0f       	add	r30, r16
    2da0:	f1 1f       	adc	r31, r17
    2da2:	94 90       	lpm	r9, Z
    2da4:	a1 14       	cp	r10, r1
    2da6:	b1 04       	cpc	r11, r1
    2da8:	e9 f0       	breq	.+58     	; 0x2de4 <_UG_PutChar+0x20a>
    2daa:	f5 01       	movw	r30, r10
    2dac:	38 97       	sbiw	r30, 0x08	; 8
    2dae:	f8 8b       	std	Y+16, r31	; 0x10
    2db0:	ef 87       	std	Y+15, r30	; 0x0f
    2db2:	90 fe       	sbrs	r9, 0
    2db4:	04 c0       	rjmp	.+8      	; 0x2dbe <_UG_PutChar+0x1e4>
    2db6:	c6 01       	movw	r24, r12
    2db8:	f2 01       	movw	r30, r4
    2dba:	09 95       	icall
    2dbc:	03 c0       	rjmp	.+6      	; 0x2dc4 <_UG_PutChar+0x1ea>
    2dbe:	c3 01       	movw	r24, r6
    2dc0:	f2 01       	movw	r30, r4
    2dc2:	09 95       	icall
    2dc4:	96 94       	lsr	r9
    2dc6:	f1 e0       	ldi	r31, 0x01	; 1
    2dc8:	af 1a       	sub	r10, r31
    2dca:	b1 08       	sbc	r11, r1
    2dcc:	2f 85       	ldd	r18, Y+15	; 0x0f
    2dce:	38 89       	ldd	r19, Y+16	; 0x10
    2dd0:	2a 15       	cp	r18, r10
    2dd2:	3b 05       	cpc	r19, r11
    2dd4:	21 f0       	breq	.+8      	; 0x2dde <_UG_PutChar+0x204>
    2dd6:	a1 14       	cp	r10, r1
    2dd8:	b1 04       	cpc	r11, r1
    2dda:	59 f7       	brne	.-42     	; 0x2db2 <_UG_PutChar+0x1d8>
    2ddc:	03 c0       	rjmp	.+6      	; 0x2de4 <_UG_PutChar+0x20a>
    2dde:	4f 85       	ldd	r20, Y+15	; 0x0f
    2de0:	58 89       	ldd	r21, Y+16	; 0x10
    2de2:	5a 01       	movw	r10, r20
    2de4:	0f 5f       	subi	r16, 0xFF	; 255
    2de6:	1f 4f       	sbci	r17, 0xFF	; 255
    2de8:	0e 15       	cp	r16, r14
    2dea:	1f 05       	cpc	r17, r15
    2dec:	a9 f6       	brne	.-86     	; 0x2d98 <_UG_PutChar+0x1be>
    2dee:	69 81       	ldd	r22, Y+1	; 0x01
    2df0:	7a 81       	ldd	r23, Y+2	; 0x02
    2df2:	8b 81       	ldd	r24, Y+3	; 0x03
    2df4:	9c 81       	ldd	r25, Y+4	; 0x04
    2df6:	29 85       	ldd	r18, Y+9	; 0x09
    2df8:	3a 85       	ldd	r19, Y+10	; 0x0a
    2dfa:	4b 85       	ldd	r20, Y+11	; 0x0b
    2dfc:	5c 85       	ldd	r21, Y+12	; 0x0c
    2dfe:	62 0f       	add	r22, r18
    2e00:	73 1f       	adc	r23, r19
    2e02:	84 1f       	adc	r24, r20
    2e04:	95 1f       	adc	r25, r21
    2e06:	69 83       	std	Y+1, r22	; 0x01
    2e08:	7a 83       	std	Y+2, r23	; 0x02
    2e0a:	8b 83       	std	Y+3, r24	; 0x03
    2e0c:	9c 83       	std	Y+4, r25	; 0x04
    2e0e:	4d 81       	ldd	r20, Y+5	; 0x05
    2e10:	5e 81       	ldd	r21, Y+6	; 0x06
    2e12:	4f 5f       	subi	r20, 0xFF	; 255
    2e14:	5f 4f       	sbci	r21, 0xFF	; 255
    2e16:	5e 83       	std	Y+6, r21	; 0x06
    2e18:	4d 83       	std	Y+5, r20	; 0x05
    2e1a:	d1 01       	movw	r26, r2
    2e1c:	15 96       	adiw	r26, 0x05	; 5
    2e1e:	8d 91       	ld	r24, X+
    2e20:	9c 91       	ld	r25, X
    2e22:	16 97       	sbiw	r26, 0x06	; 6
    2e24:	48 17       	cp	r20, r24
    2e26:	59 07       	cpc	r21, r25
    2e28:	a0 f0       	brcs	.+40     	; 0x2e52 <_UG_PutChar+0x278>
    2e2a:	20 c2       	rjmp	.+1088   	; 0x326c <_UG_PutChar+0x692>
    2e2c:	81 2c       	mov	r8, r1
    2e2e:	91 2c       	mov	r9, r1
    2e30:	8d 85       	ldd	r24, Y+13	; 0x0d
    2e32:	9e 85       	ldd	r25, Y+14	; 0x0e
    2e34:	01 97       	sbiw	r24, 0x01	; 1
    2e36:	a0 e0       	ldi	r26, 0x00	; 0
    2e38:	b0 e0       	ldi	r27, 0x00	; 0
    2e3a:	9c 01       	movw	r18, r24
    2e3c:	ad 01       	movw	r20, r26
    2e3e:	2f 5f       	subi	r18, 0xFF	; 255
    2e40:	3f 4f       	sbci	r19, 0xFF	; 255
    2e42:	4f 4f       	sbci	r20, 0xFF	; 255
    2e44:	5f 4f       	sbci	r21, 0xFF	; 255
    2e46:	29 87       	std	Y+9, r18	; 0x09
    2e48:	3a 87       	std	Y+10, r19	; 0x0a
    2e4a:	4b 87       	std	Y+11, r20	; 0x0b
    2e4c:	5c 87       	std	Y+12, r21	; 0x0c
    2e4e:	9e 82       	std	Y+6, r9	; 0x06
    2e50:	8d 82       	std	Y+5, r8	; 0x05
    2e52:	4d 85       	ldd	r20, Y+13	; 0x0d
    2e54:	5e 85       	ldd	r21, Y+14	; 0x0e
    2e56:	41 15       	cp	r20, r1
    2e58:	51 05       	cpc	r21, r1
    2e5a:	c9 f2       	breq	.-78     	; 0x2e0e <_UG_PutChar+0x234>
    2e5c:	09 81       	ldd	r16, Y+1	; 0x01
    2e5e:	1a 81       	ldd	r17, Y+2	; 0x02
    2e60:	7a 01       	movw	r14, r20
    2e62:	e0 0e       	add	r14, r16
    2e64:	f1 1e       	adc	r15, r17
    2e66:	a9 88       	ldd	r10, Y+17	; 0x11
    2e68:	ba 88       	ldd	r11, Y+18	; 0x12
    2e6a:	96 cf       	rjmp	.-212    	; 0x2d98 <_UG_PutChar+0x1be>
    2e6c:	81 30       	cpi	r24, 0x01	; 1
    2e6e:	09 f0       	breq	.+2      	; 0x2e72 <_UG_PutChar+0x298>
    2e70:	fd c1       	rjmp	.+1018   	; 0x326c <_UG_PutChar+0x692>
    2e72:	d1 01       	movw	r26, r2
    2e74:	15 96       	adiw	r26, 0x05	; 5
    2e76:	8d 91       	ld	r24, X+
    2e78:	9c 91       	ld	r25, X
    2e7a:	16 97       	sbiw	r26, 0x06	; 6
    2e7c:	17 96       	adiw	r26, 0x07	; 7
    2e7e:	2d 91       	ld	r18, X+
    2e80:	3c 91       	ld	r19, X
    2e82:	18 97       	sbiw	r26, 0x08	; 8
    2e84:	e9 81       	ldd	r30, Y+1	; 0x01
    2e86:	fa 81       	ldd	r31, Y+2	; 0x02
    2e88:	e2 1b       	sub	r30, r18
    2e8a:	f3 0b       	sbc	r31, r19
    2e8c:	13 96       	adiw	r26, 0x03	; 3
    2e8e:	4d 91       	ld	r20, X+
    2e90:	5c 91       	ld	r21, X
    2e92:	14 97       	sbiw	r26, 0x04	; 4
    2e94:	84 9f       	mul	r24, r20
    2e96:	90 01       	movw	r18, r0
    2e98:	85 9f       	mul	r24, r21
    2e9a:	30 0d       	add	r19, r0
    2e9c:	94 9f       	mul	r25, r20
    2e9e:	30 0d       	add	r19, r0
    2ea0:	11 24       	eor	r1, r1
    2ea2:	e2 9f       	mul	r30, r18
    2ea4:	40 01       	movw	r8, r0
    2ea6:	e3 9f       	mul	r30, r19
    2ea8:	90 0c       	add	r9, r0
    2eaa:	f2 9f       	mul	r31, r18
    2eac:	90 0c       	add	r9, r0
    2eae:	11 24       	eor	r1, r1
    2eb0:	a1 2c       	mov	r10, r1
    2eb2:	b1 2c       	mov	r11, r1
    2eb4:	89 2b       	or	r24, r25
    2eb6:	09 f0       	breq	.+2      	; 0x2eba <_UG_PutChar+0x2e0>
    2eb8:	4e c0       	rjmp	.+156    	; 0x2f56 <_UG_PutChar+0x37c>
    2eba:	d8 c1       	rjmp	.+944    	; 0x326c <_UG_PutChar+0x692>
    2ebc:	d1 01       	movw	r26, r2
    2ebe:	ed 91       	ld	r30, X+
    2ec0:	fc 91       	ld	r31, X
    2ec2:	29 85       	ldd	r18, Y+9	; 0x09
    2ec4:	3a 85       	ldd	r19, Y+10	; 0x0a
    2ec6:	e2 0f       	add	r30, r18
    2ec8:	f3 1f       	adc	r31, r19
    2eca:	84 91       	lpm	r24, Z
    2ecc:	90 e0       	ldi	r25, 0x00	; 0
    2ece:	98 01       	movw	r18, r16
    2ed0:	28 1b       	sub	r18, r24
    2ed2:	39 0b       	sbc	r19, r25
    2ed4:	e2 9e       	mul	r14, r18
    2ed6:	a0 01       	movw	r20, r0
    2ed8:	e3 9e       	mul	r14, r19
    2eda:	50 0d       	add	r21, r0
    2edc:	f2 9e       	mul	r15, r18
    2ede:	50 0d       	add	r21, r0
    2ee0:	11 24       	eor	r1, r1
    2ee2:	68 9e       	mul	r6, r24
    2ee4:	90 01       	movw	r18, r0
    2ee6:	69 9e       	mul	r6, r25
    2ee8:	30 0d       	add	r19, r0
    2eea:	78 9e       	mul	r7, r24
    2eec:	30 0d       	add	r19, r0
    2eee:	11 24       	eor	r1, r1
    2ef0:	ca 01       	movw	r24, r20
    2ef2:	82 0f       	add	r24, r18
    2ef4:	93 1f       	adc	r25, r19
    2ef6:	89 2f       	mov	r24, r25
    2ef8:	90 e0       	ldi	r25, 0x00	; 0
    2efa:	f2 01       	movw	r30, r4
    2efc:	09 95       	icall
    2efe:	29 85       	ldd	r18, Y+9	; 0x09
    2f00:	3a 85       	ldd	r19, Y+10	; 0x0a
    2f02:	2f 5f       	subi	r18, 0xFF	; 255
    2f04:	3f 4f       	sbci	r19, 0xFF	; 255
    2f06:	3a 87       	std	Y+10, r19	; 0x0a
    2f08:	29 87       	std	Y+9, r18	; 0x09
    2f0a:	c2 16       	cp	r12, r18
    2f0c:	d3 06       	cpc	r13, r19
    2f0e:	b1 f6       	brne	.-84     	; 0x2ebc <_UG_PutChar+0x2e2>
    2f10:	4d 81       	ldd	r20, Y+5	; 0x05
    2f12:	5e 81       	ldd	r21, Y+6	; 0x06
    2f14:	6f 81       	ldd	r22, Y+7	; 0x07
    2f16:	78 85       	ldd	r23, Y+8	; 0x08
    2f18:	84 0e       	add	r8, r20
    2f1a:	95 1e       	adc	r9, r21
    2f1c:	a6 1e       	adc	r10, r22
    2f1e:	b7 1e       	adc	r11, r23
    2f20:	d1 01       	movw	r26, r2
    2f22:	13 96       	adiw	r26, 0x03	; 3
    2f24:	8d 91       	ld	r24, X+
    2f26:	9c 91       	ld	r25, X
    2f28:	14 97       	sbiw	r26, 0x04	; 4
    2f2a:	e9 89       	ldd	r30, Y+17	; 0x11
    2f2c:	fa 89       	ldd	r31, Y+18	; 0x12
    2f2e:	8e 1b       	sub	r24, r30
    2f30:	9f 0b       	sbc	r25, r31
    2f32:	88 0e       	add	r8, r24
    2f34:	99 1e       	adc	r9, r25
    2f36:	a1 1c       	adc	r10, r1
    2f38:	b1 1c       	adc	r11, r1
    2f3a:	29 81       	ldd	r18, Y+1	; 0x01
    2f3c:	3a 81       	ldd	r19, Y+2	; 0x02
    2f3e:	2f 5f       	subi	r18, 0xFF	; 255
    2f40:	3f 4f       	sbci	r19, 0xFF	; 255
    2f42:	3a 83       	std	Y+2, r19	; 0x02
    2f44:	29 83       	std	Y+1, r18	; 0x01
    2f46:	15 96       	adiw	r26, 0x05	; 5
    2f48:	8d 91       	ld	r24, X+
    2f4a:	9c 91       	ld	r25, X
    2f4c:	16 97       	sbiw	r26, 0x06	; 6
    2f4e:	28 17       	cp	r18, r24
    2f50:	39 07       	cpc	r19, r25
    2f52:	c0 f0       	brcs	.+48     	; 0x2f84 <_UG_PutChar+0x3aa>
    2f54:	8b c1       	rjmp	.+790    	; 0x326c <_UG_PutChar+0x692>
    2f56:	1a 82       	std	Y+2, r1	; 0x02
    2f58:	19 82       	std	Y+1, r1	; 0x01
    2f5a:	73 01       	movw	r14, r6
    2f5c:	ff 24       	eor	r15, r15
    2f5e:	00 e0       	ldi	r16, 0x00	; 0
    2f60:	11 e0       	ldi	r17, 0x01	; 1
    2f62:	36 01       	movw	r6, r12
    2f64:	77 24       	eor	r7, r7
    2f66:	89 89       	ldd	r24, Y+17	; 0x11
    2f68:	9a 89       	ldd	r25, Y+18	; 0x12
    2f6a:	01 97       	sbiw	r24, 0x01	; 1
    2f6c:	a0 e0       	ldi	r26, 0x00	; 0
    2f6e:	b0 e0       	ldi	r27, 0x00	; 0
    2f70:	ac 01       	movw	r20, r24
    2f72:	bd 01       	movw	r22, r26
    2f74:	4f 5f       	subi	r20, 0xFF	; 255
    2f76:	5f 4f       	sbci	r21, 0xFF	; 255
    2f78:	6f 4f       	sbci	r22, 0xFF	; 255
    2f7a:	7f 4f       	sbci	r23, 0xFF	; 255
    2f7c:	4d 83       	std	Y+5, r20	; 0x05
    2f7e:	5e 83       	std	Y+6, r21	; 0x06
    2f80:	6f 83       	std	Y+7, r22	; 0x07
    2f82:	78 87       	std	Y+8, r23	; 0x08
    2f84:	69 89       	ldd	r22, Y+17	; 0x11
    2f86:	7a 89       	ldd	r23, Y+18	; 0x12
    2f88:	61 15       	cp	r22, r1
    2f8a:	71 05       	cpc	r23, r1
    2f8c:	49 f2       	breq	.-110    	; 0x2f20 <_UG_PutChar+0x346>
    2f8e:	9a 86       	std	Y+10, r9	; 0x0a
    2f90:	89 86       	std	Y+9, r8	; 0x09
    2f92:	6b 01       	movw	r12, r22
    2f94:	c8 0c       	add	r12, r8
    2f96:	d9 1c       	adc	r13, r9
    2f98:	91 cf       	rjmp	.-222    	; 0x2ebc <_UG_PutChar+0x2e2>
    2f9a:	d1 01       	movw	r26, r2
    2f9c:	12 96       	adiw	r26, 0x02	; 2
    2f9e:	4c 91       	ld	r20, X
    2fa0:	12 97       	sbiw	r26, 0x02	; 2
    2fa2:	41 11       	cpse	r20, r1
    2fa4:	b0 c0       	rjmp	.+352    	; 0x3106 <_UG_PutChar+0x52c>
    2fa6:	15 96       	adiw	r26, 0x05	; 5
    2fa8:	2d 91       	ld	r18, X+
    2faa:	3c 91       	ld	r19, X
    2fac:	16 97       	sbiw	r26, 0x06	; 6
    2fae:	e9 81       	ldd	r30, Y+1	; 0x01
    2fb0:	fa 81       	ldd	r31, Y+2	; 0x02
    2fb2:	e8 1b       	sub	r30, r24
    2fb4:	f9 0b       	sbc	r31, r25
    2fb6:	e2 9f       	mul	r30, r18
    2fb8:	a0 01       	movw	r20, r0
    2fba:	e3 9f       	mul	r30, r19
    2fbc:	50 0d       	add	r21, r0
    2fbe:	f2 9f       	mul	r31, r18
    2fc0:	50 0d       	add	r21, r0
    2fc2:	11 24       	eor	r1, r1
    2fc4:	6d 85       	ldd	r22, Y+13	; 0x0d
    2fc6:	7e 85       	ldd	r23, Y+14	; 0x0e
    2fc8:	46 9f       	mul	r20, r22
    2fca:	c0 01       	movw	r24, r0
    2fcc:	47 9f       	mul	r20, r23
    2fce:	90 0d       	add	r25, r0
    2fd0:	56 9f       	mul	r21, r22
    2fd2:	90 0d       	add	r25, r0
    2fd4:	11 24       	eor	r1, r1
    2fd6:	ac 01       	movw	r20, r24
    2fd8:	60 e0       	ldi	r22, 0x00	; 0
    2fda:	70 e0       	ldi	r23, 0x00	; 0
    2fdc:	4d 83       	std	Y+5, r20	; 0x05
    2fde:	5e 83       	std	Y+6, r21	; 0x06
    2fe0:	6f 83       	std	Y+7, r22	; 0x07
    2fe2:	78 87       	std	Y+8, r23	; 0x08
    2fe4:	23 2b       	or	r18, r19
    2fe6:	09 f4       	brne	.+2      	; 0x2fea <_UG_PutChar+0x410>
    2fe8:	41 c1       	rjmp	.+642    	; 0x326c <_UG_PutChar+0x692>
    2fea:	1a 86       	std	Y+10, r1	; 0x0a
    2fec:	19 86       	std	Y+9, r1	; 0x09
    2fee:	8d 85       	ldd	r24, Y+13	; 0x0d
    2ff0:	9e 85       	ldd	r25, Y+14	; 0x0e
    2ff2:	01 97       	sbiw	r24, 0x01	; 1
    2ff4:	a0 e0       	ldi	r26, 0x00	; 0
    2ff6:	b0 e0       	ldi	r27, 0x00	; 0
    2ff8:	9c 01       	movw	r18, r24
    2ffa:	ad 01       	movw	r20, r26
    2ffc:	2f 5f       	subi	r18, 0xFF	; 255
    2ffe:	3f 4f       	sbci	r19, 0xFF	; 255
    3000:	4f 4f       	sbci	r20, 0xFF	; 255
    3002:	5f 4f       	sbci	r21, 0xFF	; 255
    3004:	2b 8b       	std	Y+19, r18	; 0x13
    3006:	3c 8b       	std	Y+20, r19	; 0x14
    3008:	4d 8b       	std	Y+21, r20	; 0x15
    300a:	5e 8b       	std	Y+22, r21	; 0x16
    300c:	26 01       	movw	r4, r12
    300e:	3a 82       	std	Y+2, r3	; 0x02
    3010:	29 82       	std	Y+1, r2	; 0x01
    3012:	4f 85       	ldd	r20, Y+15	; 0x0f
    3014:	58 89       	ldd	r21, Y+16	; 0x10
    3016:	58 8f       	std	Y+24, r21	; 0x18
    3018:	4f 8b       	std	Y+23, r20	; 0x17
    301a:	6d 85       	ldd	r22, Y+13	; 0x0d
    301c:	7e 85       	ldd	r23, Y+14	; 0x0e
    301e:	61 15       	cp	r22, r1
    3020:	71 05       	cpc	r23, r1
    3022:	09 f4       	brne	.+2      	; 0x3026 <_UG_PutChar+0x44c>
    3024:	5c c0       	rjmp	.+184    	; 0x30de <_UG_PutChar+0x504>
    3026:	ed 80       	ldd	r14, Y+5	; 0x05
    3028:	fe 80       	ldd	r15, Y+6	; 0x06
    302a:	5b 01       	movw	r10, r22
    302c:	ae 0c       	add	r10, r14
    302e:	bf 1c       	adc	r11, r15
    3030:	c9 88       	ldd	r12, Y+17	; 0x11
    3032:	da 88       	ldd	r13, Y+18	; 0x12
    3034:	a9 81       	ldd	r26, Y+1	; 0x01
    3036:	ba 81       	ldd	r27, Y+2	; 0x02
    3038:	ed 91       	ld	r30, X+
    303a:	fc 91       	ld	r31, X
    303c:	ee 0d       	add	r30, r14
    303e:	ff 1d       	adc	r31, r15
    3040:	34 90       	lpm	r3, Z
    3042:	c1 14       	cp	r12, r1
    3044:	d1 04       	cpc	r13, r1
    3046:	a1 f1       	breq	.+104    	; 0x30b0 <_UG_PutChar+0x4d6>
    3048:	0f 89       	ldd	r16, Y+23	; 0x17
    304a:	18 8d       	ldd	r17, Y+24	; 0x18
    304c:	08 5f       	subi	r16, 0xF8	; 248
    304e:	1f 4f       	sbci	r17, 0xFF	; 255
    3050:	30 fe       	sbrs	r3, 0
    3052:	0d c0       	rjmp	.+26     	; 0x306e <_UG_PutChar+0x494>
    3054:	e0 91 bc 01 	lds	r30, 0x01BC	; 0x8001bc <gui>
    3058:	f0 91 bd 01 	lds	r31, 0x01BD	; 0x8001bd <gui+0x1>
    305c:	01 90       	ld	r0, Z+
    305e:	f0 81       	ld	r31, Z
    3060:	e0 2d       	mov	r30, r0
    3062:	a2 01       	movw	r20, r4
    3064:	b4 01       	movw	r22, r8
    3066:	8f 89       	ldd	r24, Y+23	; 0x17
    3068:	98 8d       	ldd	r25, Y+24	; 0x18
    306a:	09 95       	icall
    306c:	0c c0       	rjmp	.+24     	; 0x3086 <_UG_PutChar+0x4ac>
    306e:	e0 91 bc 01 	lds	r30, 0x01BC	; 0x8001bc <gui>
    3072:	f0 91 bd 01 	lds	r31, 0x01BD	; 0x8001bd <gui+0x1>
    3076:	01 90       	ld	r0, Z+
    3078:	f0 81       	ld	r31, Z
    307a:	e0 2d       	mov	r30, r0
    307c:	a3 01       	movw	r20, r6
    307e:	b4 01       	movw	r22, r8
    3080:	8f 89       	ldd	r24, Y+23	; 0x17
    3082:	98 8d       	ldd	r25, Y+24	; 0x18
    3084:	09 95       	icall
    3086:	36 94       	lsr	r3
    3088:	2f 89       	ldd	r18, Y+23	; 0x17
    308a:	38 8d       	ldd	r19, Y+24	; 0x18
    308c:	2f 5f       	subi	r18, 0xFF	; 255
    308e:	3f 4f       	sbci	r19, 0xFF	; 255
    3090:	38 8f       	std	Y+24, r19	; 0x18
    3092:	2f 8b       	std	Y+23, r18	; 0x17
    3094:	31 e0       	ldi	r19, 0x01	; 1
    3096:	c3 1a       	sub	r12, r19
    3098:	d1 08       	sbc	r13, r1
    309a:	4f 89       	ldd	r20, Y+23	; 0x17
    309c:	58 8d       	ldd	r21, Y+24	; 0x18
    309e:	40 17       	cp	r20, r16
    30a0:	51 07       	cpc	r21, r17
    30a2:	21 f0       	breq	.+8      	; 0x30ac <_UG_PutChar+0x4d2>
    30a4:	c1 14       	cp	r12, r1
    30a6:	d1 04       	cpc	r13, r1
    30a8:	99 f6       	brne	.-90     	; 0x3050 <_UG_PutChar+0x476>
    30aa:	02 c0       	rjmp	.+4      	; 0x30b0 <_UG_PutChar+0x4d6>
    30ac:	18 8f       	std	Y+24, r17	; 0x18
    30ae:	0f 8b       	std	Y+23, r16	; 0x17
    30b0:	5f ef       	ldi	r21, 0xFF	; 255
    30b2:	e5 1a       	sub	r14, r21
    30b4:	f5 0a       	sbc	r15, r21
    30b6:	ea 14       	cp	r14, r10
    30b8:	fb 04       	cpc	r15, r11
    30ba:	09 f0       	breq	.+2      	; 0x30be <_UG_PutChar+0x4e4>
    30bc:	bb cf       	rjmp	.-138    	; 0x3034 <_UG_PutChar+0x45a>
    30be:	6d 81       	ldd	r22, Y+5	; 0x05
    30c0:	7e 81       	ldd	r23, Y+6	; 0x06
    30c2:	8f 81       	ldd	r24, Y+7	; 0x07
    30c4:	98 85       	ldd	r25, Y+8	; 0x08
    30c6:	2b 89       	ldd	r18, Y+19	; 0x13
    30c8:	3c 89       	ldd	r19, Y+20	; 0x14
    30ca:	4d 89       	ldd	r20, Y+21	; 0x15
    30cc:	5e 89       	ldd	r21, Y+22	; 0x16
    30ce:	62 0f       	add	r22, r18
    30d0:	73 1f       	adc	r23, r19
    30d2:	84 1f       	adc	r24, r20
    30d4:	95 1f       	adc	r25, r21
    30d6:	6d 83       	std	Y+5, r22	; 0x05
    30d8:	7e 83       	std	Y+6, r23	; 0x06
    30da:	8f 83       	std	Y+7, r24	; 0x07
    30dc:	98 87       	std	Y+8, r25	; 0x08
    30de:	3f ef       	ldi	r19, 0xFF	; 255
    30e0:	83 1a       	sub	r8, r19
    30e2:	93 0a       	sbc	r9, r19
    30e4:	49 85       	ldd	r20, Y+9	; 0x09
    30e6:	5a 85       	ldd	r21, Y+10	; 0x0a
    30e8:	4f 5f       	subi	r20, 0xFF	; 255
    30ea:	5f 4f       	sbci	r21, 0xFF	; 255
    30ec:	5a 87       	std	Y+10, r21	; 0x0a
    30ee:	49 87       	std	Y+9, r20	; 0x09
    30f0:	a9 81       	ldd	r26, Y+1	; 0x01
    30f2:	ba 81       	ldd	r27, Y+2	; 0x02
    30f4:	15 96       	adiw	r26, 0x05	; 5
    30f6:	8d 91       	ld	r24, X+
    30f8:	9c 91       	ld	r25, X
    30fa:	16 97       	sbiw	r26, 0x06	; 6
    30fc:	48 17       	cp	r20, r24
    30fe:	59 07       	cpc	r21, r25
    3100:	08 f4       	brcc	.+2      	; 0x3104 <_UG_PutChar+0x52a>
    3102:	87 cf       	rjmp	.-242    	; 0x3012 <_UG_PutChar+0x438>
    3104:	b3 c0       	rjmp	.+358    	; 0x326c <_UG_PutChar+0x692>
    3106:	41 30       	cpi	r20, 0x01	; 1
    3108:	09 f0       	breq	.+2      	; 0x310c <_UG_PutChar+0x532>
    310a:	b0 c0       	rjmp	.+352    	; 0x326c <_UG_PutChar+0x692>
    310c:	f1 01       	movw	r30, r2
    310e:	45 81       	ldd	r20, Z+5	; 0x05
    3110:	56 81       	ldd	r21, Z+6	; 0x06
    3112:	69 81       	ldd	r22, Y+1	; 0x01
    3114:	7a 81       	ldd	r23, Y+2	; 0x02
    3116:	68 1b       	sub	r22, r24
    3118:	79 0b       	sbc	r23, r25
    311a:	24 9f       	mul	r18, r20
    311c:	c0 01       	movw	r24, r0
    311e:	25 9f       	mul	r18, r21
    3120:	90 0d       	add	r25, r0
    3122:	34 9f       	mul	r19, r20
    3124:	90 0d       	add	r25, r0
    3126:	11 24       	eor	r1, r1
    3128:	68 9f       	mul	r22, r24
    312a:	90 01       	movw	r18, r0
    312c:	69 9f       	mul	r22, r25
    312e:	30 0d       	add	r19, r0
    3130:	78 9f       	mul	r23, r24
    3132:	30 0d       	add	r19, r0
    3134:	11 24       	eor	r1, r1
    3136:	c9 01       	movw	r24, r18
    3138:	a0 e0       	ldi	r26, 0x00	; 0
    313a:	b0 e0       	ldi	r27, 0x00	; 0
    313c:	89 83       	std	Y+1, r24	; 0x01
    313e:	9a 83       	std	Y+2, r25	; 0x02
    3140:	ab 83       	std	Y+3, r26	; 0x03
    3142:	bc 83       	std	Y+4, r27	; 0x04
    3144:	45 2b       	or	r20, r21
    3146:	09 f4       	brne	.+2      	; 0x314a <_UG_PutChar+0x570>
    3148:	91 c0       	rjmp	.+290    	; 0x326c <_UG_PutChar+0x692>
    314a:	1e 82       	std	Y+6, r1	; 0x06
    314c:	1d 82       	std	Y+5, r1	; 0x05
    314e:	a9 88       	ldd	r10, Y+17	; 0x11
    3150:	ba 88       	ldd	r11, Y+18	; 0x12
    3152:	af 85       	ldd	r26, Y+15	; 0x0f
    3154:	b8 89       	ldd	r27, Y+16	; 0x10
    3156:	aa 0e       	add	r10, r26
    3158:	bb 1e       	adc	r11, r27
    315a:	77 24       	eor	r7, r7
    315c:	e1 2c       	mov	r14, r1
    315e:	ff 24       	eor	r15, r15
    3160:	f3 94       	inc	r15
    3162:	26 01       	movw	r4, r12
    3164:	55 24       	eor	r5, r5
    3166:	89 89       	ldd	r24, Y+17	; 0x11
    3168:	9a 89       	ldd	r25, Y+18	; 0x12
    316a:	01 97       	sbiw	r24, 0x01	; 1
    316c:	a0 e0       	ldi	r26, 0x00	; 0
    316e:	b0 e0       	ldi	r27, 0x00	; 0
    3170:	9c 01       	movw	r18, r24
    3172:	ad 01       	movw	r20, r26
    3174:	2f 5f       	subi	r18, 0xFF	; 255
    3176:	3f 4f       	sbci	r19, 0xFF	; 255
    3178:	4f 4f       	sbci	r20, 0xFF	; 255
    317a:	5f 4f       	sbci	r21, 0xFF	; 255
    317c:	29 87       	std	Y+9, r18	; 0x09
    317e:	3a 87       	std	Y+10, r19	; 0x0a
    3180:	4b 87       	std	Y+11, r20	; 0x0b
    3182:	5c 87       	std	Y+12, r21	; 0x0c
    3184:	4f 85       	ldd	r20, Y+15	; 0x0f
    3186:	58 89       	ldd	r21, Y+16	; 0x10
    3188:	5e 87       	std	Y+14, r21	; 0x0e
    318a:	4d 87       	std	Y+13, r20	; 0x0d
    318c:	69 89       	ldd	r22, Y+17	; 0x11
    318e:	7a 89       	ldd	r23, Y+18	; 0x12
    3190:	67 2b       	or	r22, r23
    3192:	09 f4       	brne	.+2      	; 0x3196 <_UG_PutChar+0x5bc>
    3194:	48 c0       	rjmp	.+144    	; 0x3226 <_UG_PutChar+0x64c>
    3196:	09 81       	ldd	r16, Y+1	; 0x01
    3198:	1a 81       	ldd	r17, Y+2	; 0x02
    319a:	cd 80       	ldd	r12, Y+5	; 0x05
    319c:	de 80       	ldd	r13, Y+6	; 0x06
    319e:	c8 0c       	add	r12, r8
    31a0:	d9 1c       	adc	r13, r9
    31a2:	d1 01       	movw	r26, r2
    31a4:	ed 91       	ld	r30, X+
    31a6:	fc 91       	ld	r31, X
    31a8:	e0 0f       	add	r30, r16
    31aa:	f1 1f       	adc	r31, r17
    31ac:	84 91       	lpm	r24, Z
    31ae:	90 e0       	ldi	r25, 0x00	; 0
    31b0:	97 01       	movw	r18, r14
    31b2:	28 1b       	sub	r18, r24
    31b4:	39 0b       	sbc	r19, r25
    31b6:	62 9e       	mul	r6, r18
    31b8:	a0 01       	movw	r20, r0
    31ba:	63 9e       	mul	r6, r19
    31bc:	50 0d       	add	r21, r0
    31be:	72 9e       	mul	r7, r18
    31c0:	50 0d       	add	r21, r0
    31c2:	11 24       	eor	r1, r1
    31c4:	48 9e       	mul	r4, r24
    31c6:	90 01       	movw	r18, r0
    31c8:	49 9e       	mul	r4, r25
    31ca:	30 0d       	add	r19, r0
    31cc:	58 9e       	mul	r5, r24
    31ce:	30 0d       	add	r19, r0
    31d0:	11 24       	eor	r1, r1
    31d2:	ca 01       	movw	r24, r20
    31d4:	82 0f       	add	r24, r18
    31d6:	93 1f       	adc	r25, r19
    31d8:	e0 91 bc 01 	lds	r30, 0x01BC	; 0x8001bc <gui>
    31dc:	f0 91 bd 01 	lds	r31, 0x01BD	; 0x8001bd <gui+0x1>
    31e0:	01 90       	ld	r0, Z+
    31e2:	f0 81       	ld	r31, Z
    31e4:	e0 2d       	mov	r30, r0
    31e6:	49 2f       	mov	r20, r25
    31e8:	50 e0       	ldi	r21, 0x00	; 0
    31ea:	b6 01       	movw	r22, r12
    31ec:	8d 85       	ldd	r24, Y+13	; 0x0d
    31ee:	9e 85       	ldd	r25, Y+14	; 0x0e
    31f0:	09 95       	icall
    31f2:	ed 85       	ldd	r30, Y+13	; 0x0d
    31f4:	fe 85       	ldd	r31, Y+14	; 0x0e
    31f6:	31 96       	adiw	r30, 0x01	; 1
    31f8:	fe 87       	std	Y+14, r31	; 0x0e
    31fa:	ed 87       	std	Y+13, r30	; 0x0d
    31fc:	0f 5f       	subi	r16, 0xFF	; 255
    31fe:	1f 4f       	sbci	r17, 0xFF	; 255
    3200:	ae 16       	cp	r10, r30
    3202:	bf 06       	cpc	r11, r31
    3204:	71 f6       	brne	.-100    	; 0x31a2 <_UG_PutChar+0x5c8>
    3206:	29 81       	ldd	r18, Y+1	; 0x01
    3208:	3a 81       	ldd	r19, Y+2	; 0x02
    320a:	4b 81       	ldd	r20, Y+3	; 0x03
    320c:	5c 81       	ldd	r21, Y+4	; 0x04
    320e:	69 85       	ldd	r22, Y+9	; 0x09
    3210:	7a 85       	ldd	r23, Y+10	; 0x0a
    3212:	8b 85       	ldd	r24, Y+11	; 0x0b
    3214:	9c 85       	ldd	r25, Y+12	; 0x0c
    3216:	26 0f       	add	r18, r22
    3218:	37 1f       	adc	r19, r23
    321a:	48 1f       	adc	r20, r24
    321c:	59 1f       	adc	r21, r25
    321e:	29 83       	std	Y+1, r18	; 0x01
    3220:	3a 83       	std	Y+2, r19	; 0x02
    3222:	4b 83       	std	Y+3, r20	; 0x03
    3224:	5c 83       	std	Y+4, r21	; 0x04
    3226:	d1 01       	movw	r26, r2
    3228:	13 96       	adiw	r26, 0x03	; 3
    322a:	8d 91       	ld	r24, X+
    322c:	9c 91       	ld	r25, X
    322e:	14 97       	sbiw	r26, 0x04	; 4
    3230:	e9 89       	ldd	r30, Y+17	; 0x11
    3232:	fa 89       	ldd	r31, Y+18	; 0x12
    3234:	8e 1b       	sub	r24, r30
    3236:	9f 0b       	sbc	r25, r31
    3238:	29 81       	ldd	r18, Y+1	; 0x01
    323a:	3a 81       	ldd	r19, Y+2	; 0x02
    323c:	4b 81       	ldd	r20, Y+3	; 0x03
    323e:	5c 81       	ldd	r21, Y+4	; 0x04
    3240:	28 0f       	add	r18, r24
    3242:	39 1f       	adc	r19, r25
    3244:	41 1d       	adc	r20, r1
    3246:	51 1d       	adc	r21, r1
    3248:	29 83       	std	Y+1, r18	; 0x01
    324a:	3a 83       	std	Y+2, r19	; 0x02
    324c:	4b 83       	std	Y+3, r20	; 0x03
    324e:	5c 83       	std	Y+4, r21	; 0x04
    3250:	4d 81       	ldd	r20, Y+5	; 0x05
    3252:	5e 81       	ldd	r21, Y+6	; 0x06
    3254:	4f 5f       	subi	r20, 0xFF	; 255
    3256:	5f 4f       	sbci	r21, 0xFF	; 255
    3258:	5e 83       	std	Y+6, r21	; 0x06
    325a:	4d 83       	std	Y+5, r20	; 0x05
    325c:	15 96       	adiw	r26, 0x05	; 5
    325e:	8d 91       	ld	r24, X+
    3260:	9c 91       	ld	r25, X
    3262:	16 97       	sbiw	r26, 0x06	; 6
    3264:	48 17       	cp	r20, r24
    3266:	59 07       	cpc	r21, r25
    3268:	08 f4       	brcc	.+2      	; 0x326c <_UG_PutChar+0x692>
    326a:	8c cf       	rjmp	.-232    	; 0x3184 <_UG_PutChar+0x5aa>
    326c:	68 96       	adiw	r28, 0x18	; 24
    326e:	0f b6       	in	r0, 0x3f	; 63
    3270:	f8 94       	cli
    3272:	de bf       	out	0x3e, r29	; 62
    3274:	0f be       	out	0x3f, r0	; 63
    3276:	cd bf       	out	0x3d, r28	; 61
    3278:	df 91       	pop	r29
    327a:	cf 91       	pop	r28
    327c:	1f 91       	pop	r17
    327e:	0f 91       	pop	r16
    3280:	ff 90       	pop	r15
    3282:	ef 90       	pop	r14
    3284:	df 90       	pop	r13
    3286:	cf 90       	pop	r12
    3288:	bf 90       	pop	r11
    328a:	af 90       	pop	r10
    328c:	9f 90       	pop	r9
    328e:	8f 90       	pop	r8
    3290:	7f 90       	pop	r7
    3292:	6f 90       	pop	r6
    3294:	5f 90       	pop	r5
    3296:	4f 90       	pop	r4
    3298:	3f 90       	pop	r3
    329a:	2f 90       	pop	r2
    329c:	08 95       	ret

0000329e <UG_PutChar>:
    329e:	ef 92       	push	r14
    32a0:	ff 92       	push	r15
    32a2:	0f 93       	push	r16
    32a4:	1f 93       	push	r17
    32a6:	e0 90 bc 01 	lds	r14, 0x01BC	; 0x8001bc <gui>
    32aa:	f0 90 bd 01 	lds	r15, 0x01BD	; 0x8001bd <gui+0x1>
    32ae:	91 e2       	ldi	r25, 0x21	; 33
    32b0:	e9 0e       	add	r14, r25
    32b2:	f1 1c       	adc	r15, r1
    32b4:	0e 94 ed 15 	call	0x2bda	; 0x2bda <_UG_PutChar>
    32b8:	1f 91       	pop	r17
    32ba:	0f 91       	pop	r16
    32bc:	ff 90       	pop	r15
    32be:	ef 90       	pop	r14
    32c0:	08 95       	ret

000032c2 <UG_PutString>:
    32c2:	8f 92       	push	r8
    32c4:	9f 92       	push	r9
    32c6:	af 92       	push	r10
    32c8:	bf 92       	push	r11
    32ca:	cf 92       	push	r12
    32cc:	df 92       	push	r13
    32ce:	ef 92       	push	r14
    32d0:	ff 92       	push	r15
    32d2:	0f 93       	push	r16
    32d4:	1f 93       	push	r17
    32d6:	cf 93       	push	r28
    32d8:	df 93       	push	r29
    32da:	88 2e       	mov	r8, r24
    32dc:	99 2e       	mov	r9, r25
    32de:	7b 01       	movw	r14, r22
    32e0:	ea 01       	movw	r28, r20
    32e2:	c8 2e       	mov	r12, r24
    32e4:	d9 2e       	mov	r13, r25
    32e6:	4a c0       	rjmp	.+148    	; 0x337c <UG_PutString+0xba>
    32e8:	28 2f       	mov	r18, r24
    32ea:	30 e0       	ldi	r19, 0x00	; 0
    32ec:	e0 91 bc 01 	lds	r30, 0x01BC	; 0x8001bc <gui>
    32f0:	f0 91 bd 01 	lds	r31, 0x01BD	; 0x8001bd <gui+0x1>
    32f4:	40 a5       	ldd	r20, Z+40	; 0x28
    32f6:	51 a5       	ldd	r21, Z+41	; 0x29
    32f8:	24 17       	cp	r18, r20
    32fa:	35 07       	cpc	r19, r21
    32fc:	08 f4       	brcc	.+2      	; 0x3300 <UG_PutString+0x3e>
    32fe:	3e c0       	rjmp	.+124    	; 0x337c <UG_PutString+0xba>
    3300:	62 a5       	ldd	r22, Z+42	; 0x2a
    3302:	73 a5       	ldd	r23, Z+43	; 0x2b
    3304:	62 17       	cp	r22, r18
    3306:	73 07       	cpc	r23, r19
    3308:	c8 f1       	brcs	.+114    	; 0x337c <UG_PutString+0xba>
    330a:	8a 30       	cpi	r24, 0x0A	; 10
    330c:	19 f4       	brne	.+6      	; 0x3314 <UG_PutString+0x52>
    330e:	c2 80       	ldd	r12, Z+2	; 0x02
    3310:	d3 80       	ldd	r13, Z+3	; 0x03
    3312:	34 c0       	rjmp	.+104    	; 0x337c <UG_PutString+0xba>
    3314:	a4 a5       	ldd	r26, Z+44	; 0x2c
    3316:	b5 a5       	ldd	r27, Z+45	; 0x2d
    3318:	10 97       	sbiw	r26, 0x00	; 0
    331a:	31 f0       	breq	.+12     	; 0x3328 <UG_PutString+0x66>
    331c:	24 1b       	sub	r18, r20
    331e:	35 0b       	sbc	r19, r21
    3320:	a2 0f       	add	r26, r18
    3322:	b3 1f       	adc	r27, r19
    3324:	ac 90       	ld	r10, X
    3326:	01 c0       	rjmp	.+2      	; 0x332a <UG_PutString+0x68>
    3328:	a4 a0       	ldd	r10, Z+36	; 0x24
    332a:	b1 2c       	mov	r11, r1
    332c:	a6 01       	movw	r20, r12
    332e:	4a 0d       	add	r20, r10
    3330:	5b 1d       	adc	r21, r11
    3332:	22 81       	ldd	r18, Z+2	; 0x02
    3334:	33 81       	ldd	r19, Z+3	; 0x03
    3336:	21 50       	subi	r18, 0x01	; 1
    3338:	31 09       	sbc	r19, r1
    333a:	24 17       	cp	r18, r20
    333c:	35 07       	cpc	r19, r21
    333e:	5c f4       	brge	.+22     	; 0x3356 <UG_PutString+0x94>
    3340:	97 a5       	ldd	r25, Z+47	; 0x2f
    3342:	26 a1       	ldd	r18, Z+38	; 0x26
    3344:	37 a1       	ldd	r19, Z+39	; 0x27
    3346:	29 0f       	add	r18, r25
    3348:	31 1d       	adc	r19, r1
    334a:	97 fd       	sbrc	r25, 7
    334c:	3a 95       	dec	r19
    334e:	e2 0e       	add	r14, r18
    3350:	f3 1e       	adc	r15, r19
    3352:	c8 2c       	mov	r12, r8
    3354:	d9 2c       	mov	r13, r9
    3356:	02 a9       	ldd	r16, Z+50	; 0x32
    3358:	13 a9       	ldd	r17, Z+51	; 0x33
    335a:	20 a9       	ldd	r18, Z+48	; 0x30
    335c:	31 a9       	ldd	r19, Z+49	; 0x31
    335e:	a7 01       	movw	r20, r14
    3360:	b6 01       	movw	r22, r12
    3362:	0e 94 4f 19 	call	0x329e	; 0x329e <UG_PutChar>
    3366:	e0 91 bc 01 	lds	r30, 0x01BC	; 0x8001bc <gui>
    336a:	f0 91 bd 01 	lds	r31, 0x01BD	; 0x8001bd <gui+0x1>
    336e:	86 a5       	ldd	r24, Z+46	; 0x2e
    3370:	a8 0e       	add	r10, r24
    3372:	b1 1c       	adc	r11, r1
    3374:	87 fd       	sbrc	r24, 7
    3376:	ba 94       	dec	r11
    3378:	ca 0c       	add	r12, r10
    337a:	db 1c       	adc	r13, r11
    337c:	89 91       	ld	r24, Y+
    337e:	81 11       	cpse	r24, r1
    3380:	b3 cf       	rjmp	.-154    	; 0x32e8 <UG_PutString+0x26>
    3382:	df 91       	pop	r29
    3384:	cf 91       	pop	r28
    3386:	1f 91       	pop	r17
    3388:	0f 91       	pop	r16
    338a:	ff 90       	pop	r15
    338c:	ef 90       	pop	r14
    338e:	df 90       	pop	r13
    3390:	cf 90       	pop	r12
    3392:	bf 90       	pop	r11
    3394:	af 90       	pop	r10
    3396:	9f 90       	pop	r9
    3398:	8f 90       	pop	r8
    339a:	08 95       	ret

0000339c <UG_ConsolePutString>:
    339c:	ff 92       	push	r15
    339e:	0f 93       	push	r16
    33a0:	1f 93       	push	r17
    33a2:	cf 93       	push	r28
    33a4:	df 93       	push	r29
    33a6:	ec 01       	movw	r28, r24
    33a8:	6c c0       	rjmp	.+216    	; 0x3482 <UG_ConsolePutString+0xe6>
    33aa:	2a e0       	ldi	r18, 0x0A	; 10
    33ac:	f2 12       	cpse	r15, r18
    33ae:	09 c0       	rjmp	.+18     	; 0x33c2 <UG_ConsolePutString+0x26>
    33b0:	e0 91 bc 01 	lds	r30, 0x01BC	; 0x8001bc <gui>
    33b4:	f0 91 bd 01 	lds	r31, 0x01BD	; 0x8001bd <gui+0x1>
    33b8:	82 81       	ldd	r24, Z+2	; 0x02
    33ba:	93 81       	ldd	r25, Z+3	; 0x03
    33bc:	92 8b       	std	Z+18, r25	; 0x12
    33be:	81 8b       	std	Z+17, r24	; 0x11
    33c0:	60 c0       	rjmp	.+192    	; 0x3482 <UG_ConsolePutString+0xe6>
    33c2:	e0 91 bc 01 	lds	r30, 0x01BC	; 0x8001bc <gui>
    33c6:	f0 91 bd 01 	lds	r31, 0x01BD	; 0x8001bd <gui+0x1>
    33ca:	84 a5       	ldd	r24, Z+44	; 0x2c
    33cc:	95 a5       	ldd	r25, Z+45	; 0x2d
    33ce:	00 97       	sbiw	r24, 0x00	; 0
    33d0:	51 f0       	breq	.+20     	; 0x33e6 <UG_ConsolePutString+0x4a>
    33d2:	af 2d       	mov	r26, r15
    33d4:	b0 e0       	ldi	r27, 0x00	; 0
    33d6:	20 a5       	ldd	r18, Z+40	; 0x28
    33d8:	31 a5       	ldd	r19, Z+41	; 0x29
    33da:	a2 1b       	sub	r26, r18
    33dc:	b3 0b       	sbc	r27, r19
    33de:	a8 0f       	add	r26, r24
    33e0:	b9 1f       	adc	r27, r25
    33e2:	8c 91       	ld	r24, X
    33e4:	01 c0       	rjmp	.+2      	; 0x33e8 <UG_ConsolePutString+0x4c>
    33e6:	84 a1       	ldd	r24, Z+36	; 0x24
    33e8:	68 2f       	mov	r22, r24
    33ea:	70 e0       	ldi	r23, 0x00	; 0
    33ec:	86 a5       	ldd	r24, Z+46	; 0x2e
    33ee:	9b 01       	movw	r18, r22
    33f0:	28 0f       	add	r18, r24
    33f2:	31 1d       	adc	r19, r1
    33f4:	87 fd       	sbrc	r24, 7
    33f6:	3a 95       	dec	r19
    33f8:	c9 01       	movw	r24, r18
    33fa:	21 89       	ldd	r18, Z+17	; 0x11
    33fc:	32 89       	ldd	r19, Z+18	; 0x12
    33fe:	82 0f       	add	r24, r18
    3400:	93 1f       	adc	r25, r19
    3402:	92 8b       	std	Z+18, r25	; 0x12
    3404:	81 8b       	std	Z+17, r24	; 0x11
    3406:	41 8d       	ldd	r20, Z+25	; 0x19
    3408:	52 8d       	ldd	r21, Z+26	; 0x1a
    340a:	86 0f       	add	r24, r22
    340c:	97 1f       	adc	r25, r23
    340e:	48 17       	cp	r20, r24
    3410:	59 07       	cpc	r21, r25
    3412:	8c f4       	brge	.+34     	; 0x3436 <UG_ConsolePutString+0x9a>
    3414:	85 89       	ldd	r24, Z+21	; 0x15
    3416:	96 89       	ldd	r25, Z+22	; 0x16
    3418:	92 8b       	std	Z+18, r25	; 0x12
    341a:	81 8b       	std	Z+17, r24	; 0x11
    341c:	27 a5       	ldd	r18, Z+47	; 0x2f
    341e:	86 a1       	ldd	r24, Z+38	; 0x26
    3420:	97 a1       	ldd	r25, Z+39	; 0x27
    3422:	82 0f       	add	r24, r18
    3424:	91 1d       	adc	r25, r1
    3426:	27 fd       	sbrc	r18, 7
    3428:	9a 95       	dec	r25
    342a:	23 89       	ldd	r18, Z+19	; 0x13
    342c:	34 89       	ldd	r19, Z+20	; 0x14
    342e:	82 0f       	add	r24, r18
    3430:	93 1f       	adc	r25, r19
    3432:	94 8b       	std	Z+20, r25	; 0x14
    3434:	83 8b       	std	Z+19, r24	; 0x13
    3436:	23 8d       	ldd	r18, Z+27	; 0x1b
    3438:	34 8d       	ldd	r19, Z+28	; 0x1c
    343a:	63 89       	ldd	r22, Z+19	; 0x13
    343c:	74 89       	ldd	r23, Z+20	; 0x14
    343e:	86 a1       	ldd	r24, Z+38	; 0x26
    3440:	97 a1       	ldd	r25, Z+39	; 0x27
    3442:	86 0f       	add	r24, r22
    3444:	97 1f       	adc	r25, r23
    3446:	28 17       	cp	r18, r24
    3448:	39 07       	cpc	r19, r25
    344a:	64 f4       	brge	.+24     	; 0x3464 <UG_ConsolePutString+0xc8>
    344c:	85 89       	ldd	r24, Z+21	; 0x15
    344e:	96 89       	ldd	r25, Z+22	; 0x16
    3450:	92 8b       	std	Z+18, r25	; 0x12
    3452:	81 8b       	std	Z+17, r24	; 0x11
    3454:	67 89       	ldd	r22, Z+23	; 0x17
    3456:	70 8d       	ldd	r23, Z+24	; 0x18
    3458:	74 8b       	std	Z+20, r23	; 0x14
    345a:	63 8b       	std	Z+19, r22	; 0x13
    345c:	07 8d       	ldd	r16, Z+31	; 0x1f
    345e:	10 a1       	ldd	r17, Z+32	; 0x20
    3460:	0e 94 aa 14 	call	0x2954	; 0x2954 <UG_FillFrame>
    3464:	e0 91 bc 01 	lds	r30, 0x01BC	; 0x8001bc <gui>
    3468:	f0 91 bd 01 	lds	r31, 0x01BD	; 0x8001bd <gui+0x1>
    346c:	07 8d       	ldd	r16, Z+31	; 0x1f
    346e:	10 a1       	ldd	r17, Z+32	; 0x20
    3470:	25 8d       	ldd	r18, Z+29	; 0x1d
    3472:	36 8d       	ldd	r19, Z+30	; 0x1e
    3474:	43 89       	ldd	r20, Z+19	; 0x13
    3476:	54 89       	ldd	r21, Z+20	; 0x14
    3478:	61 89       	ldd	r22, Z+17	; 0x11
    347a:	72 89       	ldd	r23, Z+18	; 0x12
    347c:	8f 2d       	mov	r24, r15
    347e:	0e 94 4f 19 	call	0x329e	; 0x329e <UG_PutChar>
    3482:	f9 90       	ld	r15, Y+
    3484:	f1 10       	cpse	r15, r1
    3486:	91 cf       	rjmp	.-222    	; 0x33aa <UG_ConsolePutString+0xe>
    3488:	df 91       	pop	r29
    348a:	cf 91       	pop	r28
    348c:	1f 91       	pop	r17
    348e:	0f 91       	pop	r16
    3490:	ff 90       	pop	r15
    3492:	08 95       	ret

00003494 <UG_DriverRegister>:
/* -------------------------------------------------------------------------------- */
/* -- DRIVER FUNCTIONS                                                           -- */
/* -------------------------------------------------------------------------------- */
void UG_DriverRegister( UG_U8 type, void* driver )
{
   if ( type >= NUMBER_OF_DRIVERS ) return;
    3494:	84 30       	cpi	r24, 0x04	; 4
    3496:	88 f4       	brcc	.+34     	; 0x34ba <UG_DriverRegister+0x26>

   gui->driver[type].driver = driver;
    3498:	20 91 bc 01 	lds	r18, 0x01BC	; 0x8001bc <gui>
    349c:	30 91 bd 01 	lds	r19, 0x01BD	; 0x8001bd <gui+0x1>
    34a0:	90 e0       	ldi	r25, 0x00	; 0
    34a2:	fc 01       	movw	r30, r24
    34a4:	ee 0f       	add	r30, r30
    34a6:	ff 1f       	adc	r31, r31
    34a8:	8e 0f       	add	r24, r30
    34aa:	9f 1f       	adc	r25, r31
    34ac:	f9 01       	movw	r30, r18
    34ae:	e8 0f       	add	r30, r24
    34b0:	f9 1f       	adc	r31, r25
    34b2:	70 af       	std	Z+56, r23	; 0x38
    34b4:	67 ab       	std	Z+55, r22	; 0x37
   gui->driver[type].state = DRIVER_REGISTERED | DRIVER_ENABLED;
    34b6:	83 e0       	ldi	r24, 0x03	; 3
    34b8:	81 af       	std	Z+57, r24	; 0x39
    34ba:	08 95       	ret

000034bc <UG_DriverEnable>:
}

void UG_DriverEnable( UG_U8 type )
{
   if ( type >= NUMBER_OF_DRIVERS ) return;
    34bc:	84 30       	cpi	r24, 0x04	; 4
    34be:	a0 f4       	brcc	.+40     	; 0x34e8 <UG_DriverEnable+0x2c>
   if ( gui->driver[type].state & DRIVER_REGISTERED )
    34c0:	40 91 bc 01 	lds	r20, 0x01BC	; 0x8001bc <gui>
    34c4:	50 91 bd 01 	lds	r21, 0x01BD	; 0x8001bd <gui+0x1>
    34c8:	90 e0       	ldi	r25, 0x00	; 0
    34ca:	dc 01       	movw	r26, r24
    34cc:	aa 0f       	add	r26, r26
    34ce:	bb 1f       	adc	r27, r27
    34d0:	a8 0f       	add	r26, r24
    34d2:	b9 1f       	adc	r27, r25
    34d4:	a4 0f       	add	r26, r20
    34d6:	b5 1f       	adc	r27, r21
    34d8:	d9 96       	adiw	r26, 0x39	; 57
    34da:	2c 91       	ld	r18, X
    34dc:	d9 97       	sbiw	r26, 0x39	; 57
    34de:	20 ff       	sbrs	r18, 0
    34e0:	03 c0       	rjmp	.+6      	; 0x34e8 <UG_DriverEnable+0x2c>
   {
      gui->driver[type].state |= DRIVER_ENABLED;
    34e2:	fd 01       	movw	r30, r26
    34e4:	22 60       	ori	r18, 0x02	; 2
    34e6:	21 af       	std	Z+57, r18	; 0x39
    34e8:	08 95       	ret

000034ea <__udivmodsi4>:
    34ea:	a1 e2       	ldi	r26, 0x21	; 33
    34ec:	1a 2e       	mov	r1, r26
    34ee:	aa 1b       	sub	r26, r26
    34f0:	bb 1b       	sub	r27, r27
    34f2:	fd 01       	movw	r30, r26
    34f4:	0d c0       	rjmp	.+26     	; 0x3510 <__udivmodsi4_ep>

000034f6 <__udivmodsi4_loop>:
    34f6:	aa 1f       	adc	r26, r26
    34f8:	bb 1f       	adc	r27, r27
    34fa:	ee 1f       	adc	r30, r30
    34fc:	ff 1f       	adc	r31, r31
    34fe:	a2 17       	cp	r26, r18
    3500:	b3 07       	cpc	r27, r19
    3502:	e4 07       	cpc	r30, r20
    3504:	f5 07       	cpc	r31, r21
    3506:	20 f0       	brcs	.+8      	; 0x3510 <__udivmodsi4_ep>
    3508:	a2 1b       	sub	r26, r18
    350a:	b3 0b       	sbc	r27, r19
    350c:	e4 0b       	sbc	r30, r20
    350e:	f5 0b       	sbc	r31, r21

00003510 <__udivmodsi4_ep>:
    3510:	66 1f       	adc	r22, r22
    3512:	77 1f       	adc	r23, r23
    3514:	88 1f       	adc	r24, r24
    3516:	99 1f       	adc	r25, r25
    3518:	1a 94       	dec	r1
    351a:	69 f7       	brne	.-38     	; 0x34f6 <__udivmodsi4_loop>
    351c:	60 95       	com	r22
    351e:	70 95       	com	r23
    3520:	80 95       	com	r24
    3522:	90 95       	com	r25
    3524:	9b 01       	movw	r18, r22
    3526:	ac 01       	movw	r20, r24
    3528:	bd 01       	movw	r22, r26
    352a:	cf 01       	movw	r24, r30
    352c:	08 95       	ret

0000352e <__divmodsi4>:
    352e:	05 2e       	mov	r0, r21
    3530:	97 fb       	bst	r25, 7
    3532:	1e f4       	brtc	.+6      	; 0x353a <__divmodsi4+0xc>
    3534:	00 94       	com	r0
    3536:	0e 94 ae 1a 	call	0x355c	; 0x355c <__negsi2>
    353a:	57 fd       	sbrc	r21, 7
    353c:	07 d0       	rcall	.+14     	; 0x354c <__divmodsi4_neg2>
    353e:	0e 94 75 1a 	call	0x34ea	; 0x34ea <__udivmodsi4>
    3542:	07 fc       	sbrc	r0, 7
    3544:	03 d0       	rcall	.+6      	; 0x354c <__divmodsi4_neg2>
    3546:	4e f4       	brtc	.+18     	; 0x355a <__divmodsi4_exit>
    3548:	0c 94 ae 1a 	jmp	0x355c	; 0x355c <__negsi2>

0000354c <__divmodsi4_neg2>:
    354c:	50 95       	com	r21
    354e:	40 95       	com	r20
    3550:	30 95       	com	r19
    3552:	21 95       	neg	r18
    3554:	3f 4f       	sbci	r19, 0xFF	; 255
    3556:	4f 4f       	sbci	r20, 0xFF	; 255
    3558:	5f 4f       	sbci	r21, 0xFF	; 255

0000355a <__divmodsi4_exit>:
    355a:	08 95       	ret

0000355c <__negsi2>:
    355c:	90 95       	com	r25
    355e:	80 95       	com	r24
    3560:	70 95       	com	r23
    3562:	61 95       	neg	r22
    3564:	7f 4f       	sbci	r23, 0xFF	; 255
    3566:	8f 4f       	sbci	r24, 0xFF	; 255
    3568:	9f 4f       	sbci	r25, 0xFF	; 255
    356a:	08 95       	ret

0000356c <__tablejump2__>:
    356c:	ee 0f       	add	r30, r30
    356e:	ff 1f       	adc	r31, r31
    3570:	05 90       	lpm	r0, Z+
    3572:	f4 91       	lpm	r31, Z
    3574:	e0 2d       	mov	r30, r0
    3576:	09 94       	ijmp

00003578 <__umulhisi3>:
    3578:	a2 9f       	mul	r26, r18
    357a:	b0 01       	movw	r22, r0
    357c:	b3 9f       	mul	r27, r19
    357e:	c0 01       	movw	r24, r0
    3580:	a3 9f       	mul	r26, r19
    3582:	70 0d       	add	r23, r0
    3584:	81 1d       	adc	r24, r1
    3586:	11 24       	eor	r1, r1
    3588:	91 1d       	adc	r25, r1
    358a:	b2 9f       	mul	r27, r18
    358c:	70 0d       	add	r23, r0
    358e:	81 1d       	adc	r24, r1
    3590:	11 24       	eor	r1, r1
    3592:	91 1d       	adc	r25, r1
    3594:	08 95       	ret

00003596 <__muluhisi3>:
    3596:	0e 94 bc 1a 	call	0x3578	; 0x3578 <__umulhisi3>
    359a:	a5 9f       	mul	r26, r21
    359c:	90 0d       	add	r25, r0
    359e:	b4 9f       	mul	r27, r20
    35a0:	90 0d       	add	r25, r0
    35a2:	a4 9f       	mul	r26, r20
    35a4:	80 0d       	add	r24, r0
    35a6:	91 1d       	adc	r25, r1
    35a8:	11 24       	eor	r1, r1
    35aa:	08 95       	ret

000035ac <__mulshisi3>:
    35ac:	b7 ff       	sbrs	r27, 7
    35ae:	0c 94 cb 1a 	jmp	0x3596	; 0x3596 <__muluhisi3>

000035b2 <__mulohisi3>:
    35b2:	0e 94 cb 1a 	call	0x3596	; 0x3596 <__muluhisi3>
    35b6:	82 1b       	sub	r24, r18
    35b8:	93 0b       	sbc	r25, r19
    35ba:	08 95       	ret

000035bc <sprintf>:
    35bc:	ae e0       	ldi	r26, 0x0E	; 14
    35be:	b0 e0       	ldi	r27, 0x00	; 0
    35c0:	e4 ee       	ldi	r30, 0xE4	; 228
    35c2:	fa e1       	ldi	r31, 0x1A	; 26
    35c4:	0c 94 9f 1d 	jmp	0x3b3e	; 0x3b3e <__prologue_saves__+0x1c>
    35c8:	0d 89       	ldd	r16, Y+21	; 0x15
    35ca:	1e 89       	ldd	r17, Y+22	; 0x16
    35cc:	86 e0       	ldi	r24, 0x06	; 6
    35ce:	8c 83       	std	Y+4, r24	; 0x04
    35d0:	1a 83       	std	Y+2, r17	; 0x02
    35d2:	09 83       	std	Y+1, r16	; 0x01
    35d4:	8f ef       	ldi	r24, 0xFF	; 255
    35d6:	9f e7       	ldi	r25, 0x7F	; 127
    35d8:	9e 83       	std	Y+6, r25	; 0x06
    35da:	8d 83       	std	Y+5, r24	; 0x05
    35dc:	ae 01       	movw	r20, r28
    35de:	47 5e       	subi	r20, 0xE7	; 231
    35e0:	5f 4f       	sbci	r21, 0xFF	; 255
    35e2:	6f 89       	ldd	r22, Y+23	; 0x17
    35e4:	78 8d       	ldd	r23, Y+24	; 0x18
    35e6:	ce 01       	movw	r24, r28
    35e8:	01 96       	adiw	r24, 0x01	; 1
    35ea:	0e 94 00 1b 	call	0x3600	; 0x3600 <vfprintf>
    35ee:	ef 81       	ldd	r30, Y+7	; 0x07
    35f0:	f8 85       	ldd	r31, Y+8	; 0x08
    35f2:	e0 0f       	add	r30, r16
    35f4:	f1 1f       	adc	r31, r17
    35f6:	10 82       	st	Z, r1
    35f8:	2e 96       	adiw	r28, 0x0e	; 14
    35fa:	e4 e0       	ldi	r30, 0x04	; 4
    35fc:	0c 94 bb 1d 	jmp	0x3b76	; 0x3b76 <__epilogue_restores__+0x1c>

00003600 <vfprintf>:
    3600:	ab e0       	ldi	r26, 0x0B	; 11
    3602:	b0 e0       	ldi	r27, 0x00	; 0
    3604:	e6 e0       	ldi	r30, 0x06	; 6
    3606:	fb e1       	ldi	r31, 0x1B	; 27
    3608:	0c 94 91 1d 	jmp	0x3b22	; 0x3b22 <__prologue_saves__>
    360c:	6c 01       	movw	r12, r24
    360e:	7b 01       	movw	r14, r22
    3610:	8a 01       	movw	r16, r20
    3612:	fc 01       	movw	r30, r24
    3614:	17 82       	std	Z+7, r1	; 0x07
    3616:	16 82       	std	Z+6, r1	; 0x06
    3618:	83 81       	ldd	r24, Z+3	; 0x03
    361a:	81 ff       	sbrs	r24, 1
    361c:	cc c1       	rjmp	.+920    	; 0x39b6 <vfprintf+0x3b6>
    361e:	ce 01       	movw	r24, r28
    3620:	01 96       	adiw	r24, 0x01	; 1
    3622:	3c 01       	movw	r6, r24
    3624:	f6 01       	movw	r30, r12
    3626:	93 81       	ldd	r25, Z+3	; 0x03
    3628:	f7 01       	movw	r30, r14
    362a:	93 fd       	sbrc	r25, 3
    362c:	85 91       	lpm	r24, Z+
    362e:	93 ff       	sbrs	r25, 3
    3630:	81 91       	ld	r24, Z+
    3632:	7f 01       	movw	r14, r30
    3634:	88 23       	and	r24, r24
    3636:	09 f4       	brne	.+2      	; 0x363a <vfprintf+0x3a>
    3638:	ba c1       	rjmp	.+884    	; 0x39ae <vfprintf+0x3ae>
    363a:	85 32       	cpi	r24, 0x25	; 37
    363c:	39 f4       	brne	.+14     	; 0x364c <vfprintf+0x4c>
    363e:	93 fd       	sbrc	r25, 3
    3640:	85 91       	lpm	r24, Z+
    3642:	93 ff       	sbrs	r25, 3
    3644:	81 91       	ld	r24, Z+
    3646:	7f 01       	movw	r14, r30
    3648:	85 32       	cpi	r24, 0x25	; 37
    364a:	29 f4       	brne	.+10     	; 0x3656 <vfprintf+0x56>
    364c:	b6 01       	movw	r22, r12
    364e:	90 e0       	ldi	r25, 0x00	; 0
    3650:	0e 94 f7 1c 	call	0x39ee	; 0x39ee <fputc>
    3654:	e7 cf       	rjmp	.-50     	; 0x3624 <vfprintf+0x24>
    3656:	91 2c       	mov	r9, r1
    3658:	21 2c       	mov	r2, r1
    365a:	31 2c       	mov	r3, r1
    365c:	ff e1       	ldi	r31, 0x1F	; 31
    365e:	f3 15       	cp	r31, r3
    3660:	d8 f0       	brcs	.+54     	; 0x3698 <vfprintf+0x98>
    3662:	8b 32       	cpi	r24, 0x2B	; 43
    3664:	79 f0       	breq	.+30     	; 0x3684 <vfprintf+0x84>
    3666:	38 f4       	brcc	.+14     	; 0x3676 <vfprintf+0x76>
    3668:	80 32       	cpi	r24, 0x20	; 32
    366a:	79 f0       	breq	.+30     	; 0x368a <vfprintf+0x8a>
    366c:	83 32       	cpi	r24, 0x23	; 35
    366e:	a1 f4       	brne	.+40     	; 0x3698 <vfprintf+0x98>
    3670:	23 2d       	mov	r18, r3
    3672:	20 61       	ori	r18, 0x10	; 16
    3674:	1d c0       	rjmp	.+58     	; 0x36b0 <vfprintf+0xb0>
    3676:	8d 32       	cpi	r24, 0x2D	; 45
    3678:	61 f0       	breq	.+24     	; 0x3692 <vfprintf+0x92>
    367a:	80 33       	cpi	r24, 0x30	; 48
    367c:	69 f4       	brne	.+26     	; 0x3698 <vfprintf+0x98>
    367e:	23 2d       	mov	r18, r3
    3680:	21 60       	ori	r18, 0x01	; 1
    3682:	16 c0       	rjmp	.+44     	; 0x36b0 <vfprintf+0xb0>
    3684:	83 2d       	mov	r24, r3
    3686:	82 60       	ori	r24, 0x02	; 2
    3688:	38 2e       	mov	r3, r24
    368a:	e3 2d       	mov	r30, r3
    368c:	e4 60       	ori	r30, 0x04	; 4
    368e:	3e 2e       	mov	r3, r30
    3690:	2a c0       	rjmp	.+84     	; 0x36e6 <vfprintf+0xe6>
    3692:	f3 2d       	mov	r31, r3
    3694:	f8 60       	ori	r31, 0x08	; 8
    3696:	1d c0       	rjmp	.+58     	; 0x36d2 <vfprintf+0xd2>
    3698:	37 fc       	sbrc	r3, 7
    369a:	2d c0       	rjmp	.+90     	; 0x36f6 <vfprintf+0xf6>
    369c:	20 ed       	ldi	r18, 0xD0	; 208
    369e:	28 0f       	add	r18, r24
    36a0:	2a 30       	cpi	r18, 0x0A	; 10
    36a2:	40 f0       	brcs	.+16     	; 0x36b4 <vfprintf+0xb4>
    36a4:	8e 32       	cpi	r24, 0x2E	; 46
    36a6:	b9 f4       	brne	.+46     	; 0x36d6 <vfprintf+0xd6>
    36a8:	36 fc       	sbrc	r3, 6
    36aa:	81 c1       	rjmp	.+770    	; 0x39ae <vfprintf+0x3ae>
    36ac:	23 2d       	mov	r18, r3
    36ae:	20 64       	ori	r18, 0x40	; 64
    36b0:	32 2e       	mov	r3, r18
    36b2:	19 c0       	rjmp	.+50     	; 0x36e6 <vfprintf+0xe6>
    36b4:	36 fe       	sbrs	r3, 6
    36b6:	06 c0       	rjmp	.+12     	; 0x36c4 <vfprintf+0xc4>
    36b8:	8a e0       	ldi	r24, 0x0A	; 10
    36ba:	98 9e       	mul	r9, r24
    36bc:	20 0d       	add	r18, r0
    36be:	11 24       	eor	r1, r1
    36c0:	92 2e       	mov	r9, r18
    36c2:	11 c0       	rjmp	.+34     	; 0x36e6 <vfprintf+0xe6>
    36c4:	ea e0       	ldi	r30, 0x0A	; 10
    36c6:	2e 9e       	mul	r2, r30
    36c8:	20 0d       	add	r18, r0
    36ca:	11 24       	eor	r1, r1
    36cc:	22 2e       	mov	r2, r18
    36ce:	f3 2d       	mov	r31, r3
    36d0:	f0 62       	ori	r31, 0x20	; 32
    36d2:	3f 2e       	mov	r3, r31
    36d4:	08 c0       	rjmp	.+16     	; 0x36e6 <vfprintf+0xe6>
    36d6:	8c 36       	cpi	r24, 0x6C	; 108
    36d8:	21 f4       	brne	.+8      	; 0x36e2 <vfprintf+0xe2>
    36da:	83 2d       	mov	r24, r3
    36dc:	80 68       	ori	r24, 0x80	; 128
    36de:	38 2e       	mov	r3, r24
    36e0:	02 c0       	rjmp	.+4      	; 0x36e6 <vfprintf+0xe6>
    36e2:	88 36       	cpi	r24, 0x68	; 104
    36e4:	41 f4       	brne	.+16     	; 0x36f6 <vfprintf+0xf6>
    36e6:	f7 01       	movw	r30, r14
    36e8:	93 fd       	sbrc	r25, 3
    36ea:	85 91       	lpm	r24, Z+
    36ec:	93 ff       	sbrs	r25, 3
    36ee:	81 91       	ld	r24, Z+
    36f0:	7f 01       	movw	r14, r30
    36f2:	81 11       	cpse	r24, r1
    36f4:	b3 cf       	rjmp	.-154    	; 0x365c <vfprintf+0x5c>
    36f6:	98 2f       	mov	r25, r24
    36f8:	9f 7d       	andi	r25, 0xDF	; 223
    36fa:	95 54       	subi	r25, 0x45	; 69
    36fc:	93 30       	cpi	r25, 0x03	; 3
    36fe:	28 f4       	brcc	.+10     	; 0x370a <vfprintf+0x10a>
    3700:	0c 5f       	subi	r16, 0xFC	; 252
    3702:	1f 4f       	sbci	r17, 0xFF	; 255
    3704:	9f e3       	ldi	r25, 0x3F	; 63
    3706:	99 83       	std	Y+1, r25	; 0x01
    3708:	0d c0       	rjmp	.+26     	; 0x3724 <vfprintf+0x124>
    370a:	83 36       	cpi	r24, 0x63	; 99
    370c:	31 f0       	breq	.+12     	; 0x371a <vfprintf+0x11a>
    370e:	83 37       	cpi	r24, 0x73	; 115
    3710:	71 f0       	breq	.+28     	; 0x372e <vfprintf+0x12e>
    3712:	83 35       	cpi	r24, 0x53	; 83
    3714:	09 f0       	breq	.+2      	; 0x3718 <vfprintf+0x118>
    3716:	59 c0       	rjmp	.+178    	; 0x37ca <vfprintf+0x1ca>
    3718:	21 c0       	rjmp	.+66     	; 0x375c <vfprintf+0x15c>
    371a:	f8 01       	movw	r30, r16
    371c:	80 81       	ld	r24, Z
    371e:	89 83       	std	Y+1, r24	; 0x01
    3720:	0e 5f       	subi	r16, 0xFE	; 254
    3722:	1f 4f       	sbci	r17, 0xFF	; 255
    3724:	88 24       	eor	r8, r8
    3726:	83 94       	inc	r8
    3728:	91 2c       	mov	r9, r1
    372a:	53 01       	movw	r10, r6
    372c:	13 c0       	rjmp	.+38     	; 0x3754 <vfprintf+0x154>
    372e:	28 01       	movw	r4, r16
    3730:	f2 e0       	ldi	r31, 0x02	; 2
    3732:	4f 0e       	add	r4, r31
    3734:	51 1c       	adc	r5, r1
    3736:	f8 01       	movw	r30, r16
    3738:	a0 80       	ld	r10, Z
    373a:	b1 80       	ldd	r11, Z+1	; 0x01
    373c:	36 fe       	sbrs	r3, 6
    373e:	03 c0       	rjmp	.+6      	; 0x3746 <vfprintf+0x146>
    3740:	69 2d       	mov	r22, r9
    3742:	70 e0       	ldi	r23, 0x00	; 0
    3744:	02 c0       	rjmp	.+4      	; 0x374a <vfprintf+0x14a>
    3746:	6f ef       	ldi	r22, 0xFF	; 255
    3748:	7f ef       	ldi	r23, 0xFF	; 255
    374a:	c5 01       	movw	r24, r10
    374c:	0e 94 ec 1c 	call	0x39d8	; 0x39d8 <strnlen>
    3750:	4c 01       	movw	r8, r24
    3752:	82 01       	movw	r16, r4
    3754:	f3 2d       	mov	r31, r3
    3756:	ff 77       	andi	r31, 0x7F	; 127
    3758:	3f 2e       	mov	r3, r31
    375a:	16 c0       	rjmp	.+44     	; 0x3788 <vfprintf+0x188>
    375c:	28 01       	movw	r4, r16
    375e:	22 e0       	ldi	r18, 0x02	; 2
    3760:	42 0e       	add	r4, r18
    3762:	51 1c       	adc	r5, r1
    3764:	f8 01       	movw	r30, r16
    3766:	a0 80       	ld	r10, Z
    3768:	b1 80       	ldd	r11, Z+1	; 0x01
    376a:	36 fe       	sbrs	r3, 6
    376c:	03 c0       	rjmp	.+6      	; 0x3774 <vfprintf+0x174>
    376e:	69 2d       	mov	r22, r9
    3770:	70 e0       	ldi	r23, 0x00	; 0
    3772:	02 c0       	rjmp	.+4      	; 0x3778 <vfprintf+0x178>
    3774:	6f ef       	ldi	r22, 0xFF	; 255
    3776:	7f ef       	ldi	r23, 0xFF	; 255
    3778:	c5 01       	movw	r24, r10
    377a:	0e 94 e1 1c 	call	0x39c2	; 0x39c2 <strnlen_P>
    377e:	4c 01       	movw	r8, r24
    3780:	f3 2d       	mov	r31, r3
    3782:	f0 68       	ori	r31, 0x80	; 128
    3784:	3f 2e       	mov	r3, r31
    3786:	82 01       	movw	r16, r4
    3788:	33 fc       	sbrc	r3, 3
    378a:	1b c0       	rjmp	.+54     	; 0x37c2 <vfprintf+0x1c2>
    378c:	82 2d       	mov	r24, r2
    378e:	90 e0       	ldi	r25, 0x00	; 0
    3790:	88 16       	cp	r8, r24
    3792:	99 06       	cpc	r9, r25
    3794:	b0 f4       	brcc	.+44     	; 0x37c2 <vfprintf+0x1c2>
    3796:	b6 01       	movw	r22, r12
    3798:	80 e2       	ldi	r24, 0x20	; 32
    379a:	90 e0       	ldi	r25, 0x00	; 0
    379c:	0e 94 f7 1c 	call	0x39ee	; 0x39ee <fputc>
    37a0:	2a 94       	dec	r2
    37a2:	f4 cf       	rjmp	.-24     	; 0x378c <vfprintf+0x18c>
    37a4:	f5 01       	movw	r30, r10
    37a6:	37 fc       	sbrc	r3, 7
    37a8:	85 91       	lpm	r24, Z+
    37aa:	37 fe       	sbrs	r3, 7
    37ac:	81 91       	ld	r24, Z+
    37ae:	5f 01       	movw	r10, r30
    37b0:	b6 01       	movw	r22, r12
    37b2:	90 e0       	ldi	r25, 0x00	; 0
    37b4:	0e 94 f7 1c 	call	0x39ee	; 0x39ee <fputc>
    37b8:	21 10       	cpse	r2, r1
    37ba:	2a 94       	dec	r2
    37bc:	21 e0       	ldi	r18, 0x01	; 1
    37be:	82 1a       	sub	r8, r18
    37c0:	91 08       	sbc	r9, r1
    37c2:	81 14       	cp	r8, r1
    37c4:	91 04       	cpc	r9, r1
    37c6:	71 f7       	brne	.-36     	; 0x37a4 <vfprintf+0x1a4>
    37c8:	e8 c0       	rjmp	.+464    	; 0x399a <vfprintf+0x39a>
    37ca:	84 36       	cpi	r24, 0x64	; 100
    37cc:	11 f0       	breq	.+4      	; 0x37d2 <vfprintf+0x1d2>
    37ce:	89 36       	cpi	r24, 0x69	; 105
    37d0:	41 f5       	brne	.+80     	; 0x3822 <vfprintf+0x222>
    37d2:	f8 01       	movw	r30, r16
    37d4:	37 fe       	sbrs	r3, 7
    37d6:	07 c0       	rjmp	.+14     	; 0x37e6 <vfprintf+0x1e6>
    37d8:	60 81       	ld	r22, Z
    37da:	71 81       	ldd	r23, Z+1	; 0x01
    37dc:	82 81       	ldd	r24, Z+2	; 0x02
    37de:	93 81       	ldd	r25, Z+3	; 0x03
    37e0:	0c 5f       	subi	r16, 0xFC	; 252
    37e2:	1f 4f       	sbci	r17, 0xFF	; 255
    37e4:	08 c0       	rjmp	.+16     	; 0x37f6 <vfprintf+0x1f6>
    37e6:	60 81       	ld	r22, Z
    37e8:	71 81       	ldd	r23, Z+1	; 0x01
    37ea:	07 2e       	mov	r0, r23
    37ec:	00 0c       	add	r0, r0
    37ee:	88 0b       	sbc	r24, r24
    37f0:	99 0b       	sbc	r25, r25
    37f2:	0e 5f       	subi	r16, 0xFE	; 254
    37f4:	1f 4f       	sbci	r17, 0xFF	; 255
    37f6:	f3 2d       	mov	r31, r3
    37f8:	ff 76       	andi	r31, 0x6F	; 111
    37fa:	3f 2e       	mov	r3, r31
    37fc:	97 ff       	sbrs	r25, 7
    37fe:	09 c0       	rjmp	.+18     	; 0x3812 <vfprintf+0x212>
    3800:	90 95       	com	r25
    3802:	80 95       	com	r24
    3804:	70 95       	com	r23
    3806:	61 95       	neg	r22
    3808:	7f 4f       	sbci	r23, 0xFF	; 255
    380a:	8f 4f       	sbci	r24, 0xFF	; 255
    380c:	9f 4f       	sbci	r25, 0xFF	; 255
    380e:	f0 68       	ori	r31, 0x80	; 128
    3810:	3f 2e       	mov	r3, r31
    3812:	2a e0       	ldi	r18, 0x0A	; 10
    3814:	30 e0       	ldi	r19, 0x00	; 0
    3816:	a3 01       	movw	r20, r6
    3818:	0e 94 33 1d 	call	0x3a66	; 0x3a66 <__ultoa_invert>
    381c:	88 2e       	mov	r8, r24
    381e:	86 18       	sub	r8, r6
    3820:	45 c0       	rjmp	.+138    	; 0x38ac <vfprintf+0x2ac>
    3822:	85 37       	cpi	r24, 0x75	; 117
    3824:	31 f4       	brne	.+12     	; 0x3832 <vfprintf+0x232>
    3826:	23 2d       	mov	r18, r3
    3828:	2f 7e       	andi	r18, 0xEF	; 239
    382a:	b2 2e       	mov	r11, r18
    382c:	2a e0       	ldi	r18, 0x0A	; 10
    382e:	30 e0       	ldi	r19, 0x00	; 0
    3830:	25 c0       	rjmp	.+74     	; 0x387c <vfprintf+0x27c>
    3832:	93 2d       	mov	r25, r3
    3834:	99 7f       	andi	r25, 0xF9	; 249
    3836:	b9 2e       	mov	r11, r25
    3838:	8f 36       	cpi	r24, 0x6F	; 111
    383a:	c1 f0       	breq	.+48     	; 0x386c <vfprintf+0x26c>
    383c:	18 f4       	brcc	.+6      	; 0x3844 <vfprintf+0x244>
    383e:	88 35       	cpi	r24, 0x58	; 88
    3840:	79 f0       	breq	.+30     	; 0x3860 <vfprintf+0x260>
    3842:	b5 c0       	rjmp	.+362    	; 0x39ae <vfprintf+0x3ae>
    3844:	80 37       	cpi	r24, 0x70	; 112
    3846:	19 f0       	breq	.+6      	; 0x384e <vfprintf+0x24e>
    3848:	88 37       	cpi	r24, 0x78	; 120
    384a:	21 f0       	breq	.+8      	; 0x3854 <vfprintf+0x254>
    384c:	b0 c0       	rjmp	.+352    	; 0x39ae <vfprintf+0x3ae>
    384e:	e9 2f       	mov	r30, r25
    3850:	e0 61       	ori	r30, 0x10	; 16
    3852:	be 2e       	mov	r11, r30
    3854:	b4 fe       	sbrs	r11, 4
    3856:	0d c0       	rjmp	.+26     	; 0x3872 <vfprintf+0x272>
    3858:	fb 2d       	mov	r31, r11
    385a:	f4 60       	ori	r31, 0x04	; 4
    385c:	bf 2e       	mov	r11, r31
    385e:	09 c0       	rjmp	.+18     	; 0x3872 <vfprintf+0x272>
    3860:	34 fe       	sbrs	r3, 4
    3862:	0a c0       	rjmp	.+20     	; 0x3878 <vfprintf+0x278>
    3864:	29 2f       	mov	r18, r25
    3866:	26 60       	ori	r18, 0x06	; 6
    3868:	b2 2e       	mov	r11, r18
    386a:	06 c0       	rjmp	.+12     	; 0x3878 <vfprintf+0x278>
    386c:	28 e0       	ldi	r18, 0x08	; 8
    386e:	30 e0       	ldi	r19, 0x00	; 0
    3870:	05 c0       	rjmp	.+10     	; 0x387c <vfprintf+0x27c>
    3872:	20 e1       	ldi	r18, 0x10	; 16
    3874:	30 e0       	ldi	r19, 0x00	; 0
    3876:	02 c0       	rjmp	.+4      	; 0x387c <vfprintf+0x27c>
    3878:	20 e1       	ldi	r18, 0x10	; 16
    387a:	32 e0       	ldi	r19, 0x02	; 2
    387c:	f8 01       	movw	r30, r16
    387e:	b7 fe       	sbrs	r11, 7
    3880:	07 c0       	rjmp	.+14     	; 0x3890 <vfprintf+0x290>
    3882:	60 81       	ld	r22, Z
    3884:	71 81       	ldd	r23, Z+1	; 0x01
    3886:	82 81       	ldd	r24, Z+2	; 0x02
    3888:	93 81       	ldd	r25, Z+3	; 0x03
    388a:	0c 5f       	subi	r16, 0xFC	; 252
    388c:	1f 4f       	sbci	r17, 0xFF	; 255
    388e:	06 c0       	rjmp	.+12     	; 0x389c <vfprintf+0x29c>
    3890:	60 81       	ld	r22, Z
    3892:	71 81       	ldd	r23, Z+1	; 0x01
    3894:	80 e0       	ldi	r24, 0x00	; 0
    3896:	90 e0       	ldi	r25, 0x00	; 0
    3898:	0e 5f       	subi	r16, 0xFE	; 254
    389a:	1f 4f       	sbci	r17, 0xFF	; 255
    389c:	a3 01       	movw	r20, r6
    389e:	0e 94 33 1d 	call	0x3a66	; 0x3a66 <__ultoa_invert>
    38a2:	88 2e       	mov	r8, r24
    38a4:	86 18       	sub	r8, r6
    38a6:	fb 2d       	mov	r31, r11
    38a8:	ff 77       	andi	r31, 0x7F	; 127
    38aa:	3f 2e       	mov	r3, r31
    38ac:	36 fe       	sbrs	r3, 6
    38ae:	0d c0       	rjmp	.+26     	; 0x38ca <vfprintf+0x2ca>
    38b0:	23 2d       	mov	r18, r3
    38b2:	2e 7f       	andi	r18, 0xFE	; 254
    38b4:	a2 2e       	mov	r10, r18
    38b6:	89 14       	cp	r8, r9
    38b8:	58 f4       	brcc	.+22     	; 0x38d0 <vfprintf+0x2d0>
    38ba:	34 fe       	sbrs	r3, 4
    38bc:	0b c0       	rjmp	.+22     	; 0x38d4 <vfprintf+0x2d4>
    38be:	32 fc       	sbrc	r3, 2
    38c0:	09 c0       	rjmp	.+18     	; 0x38d4 <vfprintf+0x2d4>
    38c2:	83 2d       	mov	r24, r3
    38c4:	8e 7e       	andi	r24, 0xEE	; 238
    38c6:	a8 2e       	mov	r10, r24
    38c8:	05 c0       	rjmp	.+10     	; 0x38d4 <vfprintf+0x2d4>
    38ca:	b8 2c       	mov	r11, r8
    38cc:	a3 2c       	mov	r10, r3
    38ce:	03 c0       	rjmp	.+6      	; 0x38d6 <vfprintf+0x2d6>
    38d0:	b8 2c       	mov	r11, r8
    38d2:	01 c0       	rjmp	.+2      	; 0x38d6 <vfprintf+0x2d6>
    38d4:	b9 2c       	mov	r11, r9
    38d6:	a4 fe       	sbrs	r10, 4
    38d8:	0f c0       	rjmp	.+30     	; 0x38f8 <vfprintf+0x2f8>
    38da:	fe 01       	movw	r30, r28
    38dc:	e8 0d       	add	r30, r8
    38de:	f1 1d       	adc	r31, r1
    38e0:	80 81       	ld	r24, Z
    38e2:	80 33       	cpi	r24, 0x30	; 48
    38e4:	21 f4       	brne	.+8      	; 0x38ee <vfprintf+0x2ee>
    38e6:	9a 2d       	mov	r25, r10
    38e8:	99 7e       	andi	r25, 0xE9	; 233
    38ea:	a9 2e       	mov	r10, r25
    38ec:	09 c0       	rjmp	.+18     	; 0x3900 <vfprintf+0x300>
    38ee:	a2 fe       	sbrs	r10, 2
    38f0:	06 c0       	rjmp	.+12     	; 0x38fe <vfprintf+0x2fe>
    38f2:	b3 94       	inc	r11
    38f4:	b3 94       	inc	r11
    38f6:	04 c0       	rjmp	.+8      	; 0x3900 <vfprintf+0x300>
    38f8:	8a 2d       	mov	r24, r10
    38fa:	86 78       	andi	r24, 0x86	; 134
    38fc:	09 f0       	breq	.+2      	; 0x3900 <vfprintf+0x300>
    38fe:	b3 94       	inc	r11
    3900:	a3 fc       	sbrc	r10, 3
    3902:	11 c0       	rjmp	.+34     	; 0x3926 <vfprintf+0x326>
    3904:	a0 fe       	sbrs	r10, 0
    3906:	06 c0       	rjmp	.+12     	; 0x3914 <vfprintf+0x314>
    3908:	b2 14       	cp	r11, r2
    390a:	88 f4       	brcc	.+34     	; 0x392e <vfprintf+0x32e>
    390c:	28 0c       	add	r2, r8
    390e:	92 2c       	mov	r9, r2
    3910:	9b 18       	sub	r9, r11
    3912:	0e c0       	rjmp	.+28     	; 0x3930 <vfprintf+0x330>
    3914:	b2 14       	cp	r11, r2
    3916:	60 f4       	brcc	.+24     	; 0x3930 <vfprintf+0x330>
    3918:	b6 01       	movw	r22, r12
    391a:	80 e2       	ldi	r24, 0x20	; 32
    391c:	90 e0       	ldi	r25, 0x00	; 0
    391e:	0e 94 f7 1c 	call	0x39ee	; 0x39ee <fputc>
    3922:	b3 94       	inc	r11
    3924:	f7 cf       	rjmp	.-18     	; 0x3914 <vfprintf+0x314>
    3926:	b2 14       	cp	r11, r2
    3928:	18 f4       	brcc	.+6      	; 0x3930 <vfprintf+0x330>
    392a:	2b 18       	sub	r2, r11
    392c:	02 c0       	rjmp	.+4      	; 0x3932 <vfprintf+0x332>
    392e:	98 2c       	mov	r9, r8
    3930:	21 2c       	mov	r2, r1
    3932:	a4 fe       	sbrs	r10, 4
    3934:	10 c0       	rjmp	.+32     	; 0x3956 <vfprintf+0x356>
    3936:	b6 01       	movw	r22, r12
    3938:	80 e3       	ldi	r24, 0x30	; 48
    393a:	90 e0       	ldi	r25, 0x00	; 0
    393c:	0e 94 f7 1c 	call	0x39ee	; 0x39ee <fputc>
    3940:	a2 fe       	sbrs	r10, 2
    3942:	17 c0       	rjmp	.+46     	; 0x3972 <vfprintf+0x372>
    3944:	a1 fc       	sbrc	r10, 1
    3946:	03 c0       	rjmp	.+6      	; 0x394e <vfprintf+0x34e>
    3948:	88 e7       	ldi	r24, 0x78	; 120
    394a:	90 e0       	ldi	r25, 0x00	; 0
    394c:	02 c0       	rjmp	.+4      	; 0x3952 <vfprintf+0x352>
    394e:	88 e5       	ldi	r24, 0x58	; 88
    3950:	90 e0       	ldi	r25, 0x00	; 0
    3952:	b6 01       	movw	r22, r12
    3954:	0c c0       	rjmp	.+24     	; 0x396e <vfprintf+0x36e>
    3956:	8a 2d       	mov	r24, r10
    3958:	86 78       	andi	r24, 0x86	; 134
    395a:	59 f0       	breq	.+22     	; 0x3972 <vfprintf+0x372>
    395c:	a1 fe       	sbrs	r10, 1
    395e:	02 c0       	rjmp	.+4      	; 0x3964 <vfprintf+0x364>
    3960:	8b e2       	ldi	r24, 0x2B	; 43
    3962:	01 c0       	rjmp	.+2      	; 0x3966 <vfprintf+0x366>
    3964:	80 e2       	ldi	r24, 0x20	; 32
    3966:	a7 fc       	sbrc	r10, 7
    3968:	8d e2       	ldi	r24, 0x2D	; 45
    396a:	b6 01       	movw	r22, r12
    396c:	90 e0       	ldi	r25, 0x00	; 0
    396e:	0e 94 f7 1c 	call	0x39ee	; 0x39ee <fputc>
    3972:	89 14       	cp	r8, r9
    3974:	38 f4       	brcc	.+14     	; 0x3984 <vfprintf+0x384>
    3976:	b6 01       	movw	r22, r12
    3978:	80 e3       	ldi	r24, 0x30	; 48
    397a:	90 e0       	ldi	r25, 0x00	; 0
    397c:	0e 94 f7 1c 	call	0x39ee	; 0x39ee <fputc>
    3980:	9a 94       	dec	r9
    3982:	f7 cf       	rjmp	.-18     	; 0x3972 <vfprintf+0x372>
    3984:	8a 94       	dec	r8
    3986:	f3 01       	movw	r30, r6
    3988:	e8 0d       	add	r30, r8
    398a:	f1 1d       	adc	r31, r1
    398c:	80 81       	ld	r24, Z
    398e:	b6 01       	movw	r22, r12
    3990:	90 e0       	ldi	r25, 0x00	; 0
    3992:	0e 94 f7 1c 	call	0x39ee	; 0x39ee <fputc>
    3996:	81 10       	cpse	r8, r1
    3998:	f5 cf       	rjmp	.-22     	; 0x3984 <vfprintf+0x384>
    399a:	22 20       	and	r2, r2
    399c:	09 f4       	brne	.+2      	; 0x39a0 <vfprintf+0x3a0>
    399e:	42 ce       	rjmp	.-892    	; 0x3624 <vfprintf+0x24>
    39a0:	b6 01       	movw	r22, r12
    39a2:	80 e2       	ldi	r24, 0x20	; 32
    39a4:	90 e0       	ldi	r25, 0x00	; 0
    39a6:	0e 94 f7 1c 	call	0x39ee	; 0x39ee <fputc>
    39aa:	2a 94       	dec	r2
    39ac:	f6 cf       	rjmp	.-20     	; 0x399a <vfprintf+0x39a>
    39ae:	f6 01       	movw	r30, r12
    39b0:	86 81       	ldd	r24, Z+6	; 0x06
    39b2:	97 81       	ldd	r25, Z+7	; 0x07
    39b4:	02 c0       	rjmp	.+4      	; 0x39ba <vfprintf+0x3ba>
    39b6:	8f ef       	ldi	r24, 0xFF	; 255
    39b8:	9f ef       	ldi	r25, 0xFF	; 255
    39ba:	2b 96       	adiw	r28, 0x0b	; 11
    39bc:	e2 e1       	ldi	r30, 0x12	; 18
    39be:	0c 94 ad 1d 	jmp	0x3b5a	; 0x3b5a <__epilogue_restores__>

000039c2 <strnlen_P>:
    39c2:	fc 01       	movw	r30, r24
    39c4:	05 90       	lpm	r0, Z+
    39c6:	61 50       	subi	r22, 0x01	; 1
    39c8:	70 40       	sbci	r23, 0x00	; 0
    39ca:	01 10       	cpse	r0, r1
    39cc:	d8 f7       	brcc	.-10     	; 0x39c4 <strnlen_P+0x2>
    39ce:	80 95       	com	r24
    39d0:	90 95       	com	r25
    39d2:	8e 0f       	add	r24, r30
    39d4:	9f 1f       	adc	r25, r31
    39d6:	08 95       	ret

000039d8 <strnlen>:
    39d8:	fc 01       	movw	r30, r24
    39da:	61 50       	subi	r22, 0x01	; 1
    39dc:	70 40       	sbci	r23, 0x00	; 0
    39de:	01 90       	ld	r0, Z+
    39e0:	01 10       	cpse	r0, r1
    39e2:	d8 f7       	brcc	.-10     	; 0x39da <strnlen+0x2>
    39e4:	80 95       	com	r24
    39e6:	90 95       	com	r25
    39e8:	8e 0f       	add	r24, r30
    39ea:	9f 1f       	adc	r25, r31
    39ec:	08 95       	ret

000039ee <fputc>:
    39ee:	0f 93       	push	r16
    39f0:	1f 93       	push	r17
    39f2:	cf 93       	push	r28
    39f4:	df 93       	push	r29
    39f6:	fb 01       	movw	r30, r22
    39f8:	23 81       	ldd	r18, Z+3	; 0x03
    39fa:	21 fd       	sbrc	r18, 1
    39fc:	03 c0       	rjmp	.+6      	; 0x3a04 <fputc+0x16>
    39fe:	8f ef       	ldi	r24, 0xFF	; 255
    3a00:	9f ef       	ldi	r25, 0xFF	; 255
    3a02:	2c c0       	rjmp	.+88     	; 0x3a5c <fputc+0x6e>
    3a04:	22 ff       	sbrs	r18, 2
    3a06:	16 c0       	rjmp	.+44     	; 0x3a34 <fputc+0x46>
    3a08:	46 81       	ldd	r20, Z+6	; 0x06
    3a0a:	57 81       	ldd	r21, Z+7	; 0x07
    3a0c:	24 81       	ldd	r18, Z+4	; 0x04
    3a0e:	35 81       	ldd	r19, Z+5	; 0x05
    3a10:	42 17       	cp	r20, r18
    3a12:	53 07       	cpc	r21, r19
    3a14:	44 f4       	brge	.+16     	; 0x3a26 <fputc+0x38>
    3a16:	a0 81       	ld	r26, Z
    3a18:	b1 81       	ldd	r27, Z+1	; 0x01
    3a1a:	9d 01       	movw	r18, r26
    3a1c:	2f 5f       	subi	r18, 0xFF	; 255
    3a1e:	3f 4f       	sbci	r19, 0xFF	; 255
    3a20:	31 83       	std	Z+1, r19	; 0x01
    3a22:	20 83       	st	Z, r18
    3a24:	8c 93       	st	X, r24
    3a26:	26 81       	ldd	r18, Z+6	; 0x06
    3a28:	37 81       	ldd	r19, Z+7	; 0x07
    3a2a:	2f 5f       	subi	r18, 0xFF	; 255
    3a2c:	3f 4f       	sbci	r19, 0xFF	; 255
    3a2e:	37 83       	std	Z+7, r19	; 0x07
    3a30:	26 83       	std	Z+6, r18	; 0x06
    3a32:	14 c0       	rjmp	.+40     	; 0x3a5c <fputc+0x6e>
    3a34:	8b 01       	movw	r16, r22
    3a36:	ec 01       	movw	r28, r24
    3a38:	fb 01       	movw	r30, r22
    3a3a:	00 84       	ldd	r0, Z+8	; 0x08
    3a3c:	f1 85       	ldd	r31, Z+9	; 0x09
    3a3e:	e0 2d       	mov	r30, r0
    3a40:	09 95       	icall
    3a42:	89 2b       	or	r24, r25
    3a44:	e1 f6       	brne	.-72     	; 0x39fe <fputc+0x10>
    3a46:	d8 01       	movw	r26, r16
    3a48:	16 96       	adiw	r26, 0x06	; 6
    3a4a:	8d 91       	ld	r24, X+
    3a4c:	9c 91       	ld	r25, X
    3a4e:	17 97       	sbiw	r26, 0x07	; 7
    3a50:	01 96       	adiw	r24, 0x01	; 1
    3a52:	17 96       	adiw	r26, 0x07	; 7
    3a54:	9c 93       	st	X, r25
    3a56:	8e 93       	st	-X, r24
    3a58:	16 97       	sbiw	r26, 0x06	; 6
    3a5a:	ce 01       	movw	r24, r28
    3a5c:	df 91       	pop	r29
    3a5e:	cf 91       	pop	r28
    3a60:	1f 91       	pop	r17
    3a62:	0f 91       	pop	r16
    3a64:	08 95       	ret

00003a66 <__ultoa_invert>:
    3a66:	fa 01       	movw	r30, r20
    3a68:	aa 27       	eor	r26, r26
    3a6a:	28 30       	cpi	r18, 0x08	; 8
    3a6c:	51 f1       	breq	.+84     	; 0x3ac2 <__ultoa_invert+0x5c>
    3a6e:	20 31       	cpi	r18, 0x10	; 16
    3a70:	81 f1       	breq	.+96     	; 0x3ad2 <__ultoa_invert+0x6c>
    3a72:	e8 94       	clt
    3a74:	6f 93       	push	r22
    3a76:	6e 7f       	andi	r22, 0xFE	; 254
    3a78:	6e 5f       	subi	r22, 0xFE	; 254
    3a7a:	7f 4f       	sbci	r23, 0xFF	; 255
    3a7c:	8f 4f       	sbci	r24, 0xFF	; 255
    3a7e:	9f 4f       	sbci	r25, 0xFF	; 255
    3a80:	af 4f       	sbci	r26, 0xFF	; 255
    3a82:	b1 e0       	ldi	r27, 0x01	; 1
    3a84:	3e d0       	rcall	.+124    	; 0x3b02 <__ultoa_invert+0x9c>
    3a86:	b4 e0       	ldi	r27, 0x04	; 4
    3a88:	3c d0       	rcall	.+120    	; 0x3b02 <__ultoa_invert+0x9c>
    3a8a:	67 0f       	add	r22, r23
    3a8c:	78 1f       	adc	r23, r24
    3a8e:	89 1f       	adc	r24, r25
    3a90:	9a 1f       	adc	r25, r26
    3a92:	a1 1d       	adc	r26, r1
    3a94:	68 0f       	add	r22, r24
    3a96:	79 1f       	adc	r23, r25
    3a98:	8a 1f       	adc	r24, r26
    3a9a:	91 1d       	adc	r25, r1
    3a9c:	a1 1d       	adc	r26, r1
    3a9e:	6a 0f       	add	r22, r26
    3aa0:	71 1d       	adc	r23, r1
    3aa2:	81 1d       	adc	r24, r1
    3aa4:	91 1d       	adc	r25, r1
    3aa6:	a1 1d       	adc	r26, r1
    3aa8:	20 d0       	rcall	.+64     	; 0x3aea <__ultoa_invert+0x84>
    3aaa:	09 f4       	brne	.+2      	; 0x3aae <__ultoa_invert+0x48>
    3aac:	68 94       	set
    3aae:	3f 91       	pop	r19
    3ab0:	2a e0       	ldi	r18, 0x0A	; 10
    3ab2:	26 9f       	mul	r18, r22
    3ab4:	11 24       	eor	r1, r1
    3ab6:	30 19       	sub	r19, r0
    3ab8:	30 5d       	subi	r19, 0xD0	; 208
    3aba:	31 93       	st	Z+, r19
    3abc:	de f6       	brtc	.-74     	; 0x3a74 <__ultoa_invert+0xe>
    3abe:	cf 01       	movw	r24, r30
    3ac0:	08 95       	ret
    3ac2:	46 2f       	mov	r20, r22
    3ac4:	47 70       	andi	r20, 0x07	; 7
    3ac6:	40 5d       	subi	r20, 0xD0	; 208
    3ac8:	41 93       	st	Z+, r20
    3aca:	b3 e0       	ldi	r27, 0x03	; 3
    3acc:	0f d0       	rcall	.+30     	; 0x3aec <__ultoa_invert+0x86>
    3ace:	c9 f7       	brne	.-14     	; 0x3ac2 <__ultoa_invert+0x5c>
    3ad0:	f6 cf       	rjmp	.-20     	; 0x3abe <__ultoa_invert+0x58>
    3ad2:	46 2f       	mov	r20, r22
    3ad4:	4f 70       	andi	r20, 0x0F	; 15
    3ad6:	40 5d       	subi	r20, 0xD0	; 208
    3ad8:	4a 33       	cpi	r20, 0x3A	; 58
    3ada:	18 f0       	brcs	.+6      	; 0x3ae2 <__ultoa_invert+0x7c>
    3adc:	49 5d       	subi	r20, 0xD9	; 217
    3ade:	31 fd       	sbrc	r19, 1
    3ae0:	40 52       	subi	r20, 0x20	; 32
    3ae2:	41 93       	st	Z+, r20
    3ae4:	02 d0       	rcall	.+4      	; 0x3aea <__ultoa_invert+0x84>
    3ae6:	a9 f7       	brne	.-22     	; 0x3ad2 <__ultoa_invert+0x6c>
    3ae8:	ea cf       	rjmp	.-44     	; 0x3abe <__ultoa_invert+0x58>
    3aea:	b4 e0       	ldi	r27, 0x04	; 4
    3aec:	a6 95       	lsr	r26
    3aee:	97 95       	ror	r25
    3af0:	87 95       	ror	r24
    3af2:	77 95       	ror	r23
    3af4:	67 95       	ror	r22
    3af6:	ba 95       	dec	r27
    3af8:	c9 f7       	brne	.-14     	; 0x3aec <__ultoa_invert+0x86>
    3afa:	00 97       	sbiw	r24, 0x00	; 0
    3afc:	61 05       	cpc	r22, r1
    3afe:	71 05       	cpc	r23, r1
    3b00:	08 95       	ret
    3b02:	9b 01       	movw	r18, r22
    3b04:	ac 01       	movw	r20, r24
    3b06:	0a 2e       	mov	r0, r26
    3b08:	06 94       	lsr	r0
    3b0a:	57 95       	ror	r21
    3b0c:	47 95       	ror	r20
    3b0e:	37 95       	ror	r19
    3b10:	27 95       	ror	r18
    3b12:	ba 95       	dec	r27
    3b14:	c9 f7       	brne	.-14     	; 0x3b08 <__ultoa_invert+0xa2>
    3b16:	62 0f       	add	r22, r18
    3b18:	73 1f       	adc	r23, r19
    3b1a:	84 1f       	adc	r24, r20
    3b1c:	95 1f       	adc	r25, r21
    3b1e:	a0 1d       	adc	r26, r0
    3b20:	08 95       	ret

00003b22 <__prologue_saves__>:
    3b22:	2f 92       	push	r2
    3b24:	3f 92       	push	r3
    3b26:	4f 92       	push	r4
    3b28:	5f 92       	push	r5
    3b2a:	6f 92       	push	r6
    3b2c:	7f 92       	push	r7
    3b2e:	8f 92       	push	r8
    3b30:	9f 92       	push	r9
    3b32:	af 92       	push	r10
    3b34:	bf 92       	push	r11
    3b36:	cf 92       	push	r12
    3b38:	df 92       	push	r13
    3b3a:	ef 92       	push	r14
    3b3c:	ff 92       	push	r15
    3b3e:	0f 93       	push	r16
    3b40:	1f 93       	push	r17
    3b42:	cf 93       	push	r28
    3b44:	df 93       	push	r29
    3b46:	cd b7       	in	r28, 0x3d	; 61
    3b48:	de b7       	in	r29, 0x3e	; 62
    3b4a:	ca 1b       	sub	r28, r26
    3b4c:	db 0b       	sbc	r29, r27
    3b4e:	0f b6       	in	r0, 0x3f	; 63
    3b50:	f8 94       	cli
    3b52:	de bf       	out	0x3e, r29	; 62
    3b54:	0f be       	out	0x3f, r0	; 63
    3b56:	cd bf       	out	0x3d, r28	; 61
    3b58:	09 94       	ijmp

00003b5a <__epilogue_restores__>:
    3b5a:	2a 88       	ldd	r2, Y+18	; 0x12
    3b5c:	39 88       	ldd	r3, Y+17	; 0x11
    3b5e:	48 88       	ldd	r4, Y+16	; 0x10
    3b60:	5f 84       	ldd	r5, Y+15	; 0x0f
    3b62:	6e 84       	ldd	r6, Y+14	; 0x0e
    3b64:	7d 84       	ldd	r7, Y+13	; 0x0d
    3b66:	8c 84       	ldd	r8, Y+12	; 0x0c
    3b68:	9b 84       	ldd	r9, Y+11	; 0x0b
    3b6a:	aa 84       	ldd	r10, Y+10	; 0x0a
    3b6c:	b9 84       	ldd	r11, Y+9	; 0x09
    3b6e:	c8 84       	ldd	r12, Y+8	; 0x08
    3b70:	df 80       	ldd	r13, Y+7	; 0x07
    3b72:	ee 80       	ldd	r14, Y+6	; 0x06
    3b74:	fd 80       	ldd	r15, Y+5	; 0x05
    3b76:	0c 81       	ldd	r16, Y+4	; 0x04
    3b78:	1b 81       	ldd	r17, Y+3	; 0x03
    3b7a:	aa 81       	ldd	r26, Y+2	; 0x02
    3b7c:	b9 81       	ldd	r27, Y+1	; 0x01
    3b7e:	ce 0f       	add	r28, r30
    3b80:	d1 1d       	adc	r29, r1
    3b82:	0f b6       	in	r0, 0x3f	; 63
    3b84:	f8 94       	cli
    3b86:	de bf       	out	0x3e, r29	; 62
    3b88:	0f be       	out	0x3f, r0	; 63
    3b8a:	cd bf       	out	0x3d, r28	; 61
    3b8c:	ed 01       	movw	r28, r26
    3b8e:	08 95       	ret

00003b90 <_exit>:
    3b90:	f8 94       	cli

00003b92 <__stop_program>:
    3b92:	ff cf       	rjmp	.-2      	; 0x3b92 <__stop_program>
